Certificate:
    Data:
        Version: 1 (0x0)
        Serial Number:
            d3:08:ce:d6:33:0c:da:e2:22:30:31:d9:28:6c:df:bb:2c:4f:a1:5e
        Signature Algorithm: sha256WithRSAEncryption
        Issuer: C = US, ST = CA, L = Santa Clara, O = Real Time Innovations, CN = RTI RSA01 ROOT CA, emailAddress = rsa01RootCa@rti.com
        Validity
            Not Before: Jul  1 07:55:33 2023 GMT
            Not After : Jun 29 07:55:33 2028 GMT
        Subject: C = US, ST = CA, O = Real Time Innovations, CN = RTI RSA01 PEER02, emailAddress = rsa01Peer02@rti.com
        Subject Public Key Info:
            Public Key Algorithm: rsaEncryption
                Public-Key: (2048 bit)
                Modulus:
                    00:95:c5:5e:ed:43:a5:0b:07:c3:f9:95:6a:f0:70:
                    85:f8:26:79:70:23:69:62:2d:2d:28:61:f9:ea:68:
                    40:62:f3:af:09:12:37:69:f6:8d:23:ec:2e:ce:6a:
                    3e:81:7d:d2:2f:89:52:0d:bb:00:e2:31:b9:f8:49:
                    e1:5d:5f:10:75:e4:26:57:90:9d:b1:d4:3b:8d:17:
                    f6:cb:ed:f3:6b:78:87:44:af:2c:fa:1c:5b:82:09:
                    7d:4d:99:a9:7e:7f:08:db:88:f7:91:03:a9:ca:dc:
                    46:e8:8c:5c:3a:00:4f:7a:b3:66:d5:3e:18:4a:07:
                    eb:28:b0:0c:32:62:4a:c4:c5:84:d9:a9:b1:c2:b7:
                    d9:c1:30:dc:16:f9:13:94:2e:d9:80:31:b6:c7:21:
                    2b:70:5d:ea:28:8c:52:19:b9:58:f6:04:dc:82:38:
                    db:21:66:86:79:3b:d4:9f:c7:75:2b:46:00:eb:04:
                    ff:d5:15:ea:bc:dd:a9:f2:98:8f:cd:6b:00:88:30:
                    52:92:a3:43:3d:42:d1:af:76:81:0f:06:23:72:59:
                    99:ea:01:ca:7e:47:d8:e4:fe:1f:df:bb:92:11:16:
                    b2:9a:fa:7f:5e:cd:42:2a:c1:69:a3:c1:59:94:99:
                    f6:b8:18:c2:2f:9f:28:51:76:e1:ed:f0:63:11:21:
                    01:15
                Exponent: 65537 (0x10001)
    Signature Algorithm: sha256WithRSAEncryption
    Signature Value:
        64:f8:d0:9b:17:24:8c:a1:da:5f:9f:e5:85:0c:0e:48:b7:5f:
        58:9f:d6:63:da:fe:b2:4e:97:f6:9d:86:19:28:5b:d6:aa:88:
        4b:c0:27:79:35:25:86:b7:56:61:63:42:01:68:1a:45:1b:5f:
        9a:bc:39:f9:1a:a1:92:17:87:c1:04:13:85:dc:e2:85:62:19:
        94:7f:04:7b:4d:0d:63:bd:30:39:62:66:0b:53:e8:ea:5a:f5:
        ea:1c:30:fc:5f:5d:de:db:bd:7a:8f:cc:a4:81:ee:d5:ee:5e:
        93:3b:35:9f:ae:a5:19:7e:4d:57:cc:5e:e8:57:77:52:89:53:
        71:f5:e8:81:3d:04:45:a0:16:2c:c5:8c:aa:0a:e0:9f:9d:88:
        2e:7d:ce:d1:c2:69:5f:35:e3:f5:c0:e0:ef:8e:a2:4c:30:38:
        89:a9:b5:e2:c9:0f:46:11:e9:2a:7e:b0:64:bb:1e:90:21:ee:
        d2:e0:97:9d:42:80:90:06:35:b7:0f:62:7b:78:de:68:43:79:
        23:3b:f5:07:15:61:69:30:fa:84:8e:42:b8:84:41:8f:7e:78:
        04:6c:c0:b8:61:f6:e8:4a:0a:37:df:0f:11:f7:ae:c3:af:fb:
        d9:b3:1b:bb:63:be:a5:4f:5b:82:7b:0e:ee:27:08:16:49:92:
        6d:3e:ba:08
-----BEGIN CERTIFICATE-----
MIIDkjCCAnoCFQDTCM7WMwza4iIwMdkobN+7LE+hXjANBgkqhkiG9w0BAQsFADCB
kDELMAkGA1UEBhMCVVMxCzAJBgNVBAgMAkNBMRQwEgYDVQQHDAtTYW50YSBDbGFy
YTEeMBwGA1UECgwVUmVhbCBUaW1lIElubm92YXRpb25zMRowGAYDVQQDDBFSVEkg
UlNBMDEgUk9PVCBDQTEiMCAGCSqGSIb3DQEJARYTcnNhMDFSb290Q2FAcnRpLmNv
bTAeFw0yMzA3MDEwNzU1MzNaFw0yODA2MjkwNzU1MzNaMHkxCzAJBgNVBAYTAlVT
MQswCQYDVQQIDAJDQTEeMBwGA1UECgwVUmVhbCBUaW1lIElubm92YXRpb25zMRkw
FwYDVQQDDBBSVEkgUlNBMDEgUEVFUjAyMSIwIAYJKoZIhvcNAQkBFhNyc2EwMVBl
ZXIwMkBydGkuY29tMIIBIjANBgkqhkiG9w0BAQEFAAOCAQ8AMIIBCgKCAQEAlcVe
7UOlCwfD+ZVq8HCF+CZ5cCNpYi0tKGH56mhAYvOvCRI3afaNI+wuzmo+gX3SL4lS
DbsA4jG5+EnhXV8QdeQmV5CdsdQ7jRf2y+3za3iHRK8s+hxbggl9TZmpfn8I24j3
kQOpytxG6IxcOgBPerNm1T4YSgfrKLAMMmJKxMWE2amxwrfZwTDcFvkTlC7ZgDG2
xyErcF3qKIxSGblY9gTcgjjbIWaGeTvUn8d1K0YA6wT/1RXqvN2p8piPzWsAiDBS
kqNDPULRr3aBDwYjclmZ6gHKfkfY5P4f37uSERaymvp/Xs1CKsFpo8FZlJn2uBjC
L58oUXbh7fBjESEBFQIDAQABMA0GCSqGSIb3DQEBCwUAA4IBAQBk+NCbFySModpf
n+WFDA5It19Yn9Zj2v6yTpf2nYYZKFvWqohLwCd5NSWGt1ZhY0IBaBpFG1+avDn5
GqGSF4fBBBOF3OKFYhmUfwR7TQ1jvTA5YmYLU+jqWvXqHDD8X13e2716j8ykge7V
7l6TOzWfrqUZfk1XzF7oV3dSiVNx9eiBPQRFoBYsxYyqCuCfnYgufc7RwmlfNeP1
wODvjqJMMDiJqbXiyQ9GEekqfrBkux6QIe7S4JedQoCQBjW3D2J7eN5oQ3kjO/UH
FWFpMPqEjkK4hEGPfngEbMC4YfboSgo33w8R967Dr/vZsxu7Y76lT1uCew7uJwgW
SZJtProI
-----END CERTIFICATE-----
