Certificate:
    Data:
        Version: 1 (0x0)
        Serial Number:
            f5:2d:78:9b:59:a1:a9:d4:95:5a:9a:91:48:41:d0:ed:61:ad:94:8f
        Signature Algorithm: sha256WithRSAEncryption
        Issuer: C = US, ST = CA, L = Santa Clara, O = Real Time Innovations, CN = RTI RSA01 ROOT CA, emailAddress = rsa01RootCa@rti.com
        Validity
            Not Before: Jul  1 07:55:32 2023 GMT
            Not After : Jun 29 07:55:32 2028 GMT
        Subject: C = US, ST = CA, O = Real Time Innovations, CN = RTI RSA01 PEER01, emailAddress = rsa01Peer01@rti.com
        Subject Public Key Info:
            Public Key Algorithm: rsaEncryption
                Public-Key: (2048 bit)
                Modulus:
                    00:8b:8a:00:95:3a:a2:8e:60:a3:dc:b8:93:27:10:
                    95:1b:f8:5e:d3:47:ec:18:3f:5a:9c:9f:52:b0:76:
                    96:43:6b:e9:b3:91:e5:89:19:2e:7c:32:3a:54:a1:
                    d5:89:4f:7c:a3:ea:fd:d6:a0:7a:7b:ae:f3:ce:03:
                    dd:51:3a:9e:83:b1:e0:66:49:49:fb:be:7c:41:d1:
                    26:30:d2:f2:de:51:2b:74:be:e8:37:f9:8e:0e:b5:
                    1f:90:83:bd:0a:cd:71:23:0f:8c:79:1c:5a:11:95:
                    0a:e4:4d:29:ea:ca:e0:c8:38:ba:a1:ac:b8:4a:95:
                    51:85:0d:30:d3:52:9f:a4:b8:a1:a1:7c:4a:92:2c:
                    ca:fa:c5:90:fa:72:b6:6a:8f:74:bf:32:5d:07:d6:
                    be:b6:03:2d:9f:e9:07:61:da:aa:6e:a1:77:21:2e:
                    ba:54:d2:ef:40:0b:85:5a:86:cb:12:8a:b9:1e:3d:
                    5d:df:79:53:f5:be:f5:59:28:ac:9e:a1:6f:f7:5e:
                    52:3a:27:a0:ed:af:f5:78:6f:2e:97:0d:db:df:cc:
                    8a:07:78:9d:c7:82:e5:32:a0:a4:7f:1a:cc:fe:a9:
                    cd:4a:27:cc:ac:45:aa:ea:9c:fe:f6:6d:9f:7b:cd:
                    bf:a1:14:c4:f9:0c:df:f6:e6:6e:54:d1:2f:8c:16:
                    af:41
                Exponent: 65537 (0x10001)
    Signature Algorithm: sha256WithRSAEncryption
    Signature Value:
        33:16:5e:5c:93:da:b1:7f:10:f9:c6:b3:1c:49:da:4e:ab:77:
        38:4e:45:60:5b:44:ae:94:26:05:02:ba:71:ff:bb:80:40:cf:
        ef:13:de:84:5e:97:80:3d:33:88:1e:dd:ab:dd:9d:16:7e:d9:
        d6:ca:1f:7a:f1:f6:4c:24:0e:b3:e4:0c:6a:9d:1c:f4:78:2b:
        72:87:bf:8d:8e:16:d1:98:aa:3c:a8:8c:93:70:fc:23:ee:c4:
        df:45:29:3d:e4:2a:b9:b9:75:e5:ad:75:72:5f:86:72:f5:d6:
        04:e5:b1:7d:7b:b7:b8:ee:97:df:6b:2d:7a:43:53:88:d6:5c:
        bd:32:34:f1:7b:84:44:eb:63:f0:a7:a9:11:a2:1c:04:88:a5:
        e4:73:bf:61:d0:ed:b7:67:4f:89:7e:90:c0:24:98:ff:42:50:
        2d:9b:cf:0d:28:a4:49:1d:36:94:ea:85:c4:d6:7a:b6:df:f5:
        78:08:19:f2:30:8f:74:86:5a:ed:c0:cf:f1:1e:5a:bd:06:97:
        8f:87:89:93:da:c9:60:50:69:14:6b:5f:c4:82:42:04:50:fe:
        d0:e8:02:fd:e2:a2:32:e3:e5:5e:59:31:d8:f6:4a:52:69:68:
        51:f3:b9:0e:92:90:12:a6:c7:21:ba:79:cb:a3:49:b0:ca:d4:
        5b:b0:2a:43
-----BEGIN CERTIFICATE-----
MIIDkjCCAnoCFQD1LXibWaGp1JVampFIQdDtYa2UjzANBgkqhkiG9w0BAQsFADCB
kDELMAkGA1UEBhMCVVMxCzAJBgNVBAgMAkNBMRQwEgYDVQQHDAtTYW50YSBDbGFy
YTEeMBwGA1UECgwVUmVhbCBUaW1lIElubm92YXRpb25zMRowGAYDVQQDDBFSVEkg
UlNBMDEgUk9PVCBDQTEiMCAGCSqGSIb3DQEJARYTcnNhMDFSb290Q2FAcnRpLmNv
bTAeFw0yMzA3MDEwNzU1MzJaFw0yODA2MjkwNzU1MzJaMHkxCzAJBgNVBAYTAlVT
MQswCQYDVQQIDAJDQTEeMBwGA1UECgwVUmVhbCBUaW1lIElubm92YXRpb25zMRkw
FwYDVQQDDBBSVEkgUlNBMDEgUEVFUjAxMSIwIAYJKoZIhvcNAQkBFhNyc2EwMVBl
ZXIwMUBydGkuY29tMIIBIjANBgkqhkiG9w0BAQEFAAOCAQ8AMIIBCgKCAQEAi4oA
lTqijmCj3LiTJxCVG/he00fsGD9anJ9SsHaWQ2vps5HliRkufDI6VKHViU98o+r9
1qB6e67zzgPdUTqeg7HgZklJ+758QdEmMNLy3lErdL7oN/mODrUfkIO9Cs1xIw+M
eRxaEZUK5E0p6srgyDi6oay4SpVRhQ0w01KfpLihoXxKkizK+sWQ+nK2ao90vzJd
B9a+tgMtn+kHYdqqbqF3IS66VNLvQAuFWobLEoq5Hj1d33lT9b71WSisnqFv915S
Oieg7a/1eG8ulw3b38yKB3idx4LlMqCkfxrM/qnNSifMrEWq6pz+9m2fe82/oRTE
+Qzf9uZuVNEvjBavQQIDAQABMA0GCSqGSIb3DQEBCwUAA4IBAQAzFl5ck9qxfxD5
xrMcSdpOq3c4TkVgW0SulCYFArpx/7uAQM/vE96EXpeAPTOIHt2r3Z0WftnWyh96
8fZMJA6z5AxqnRz0eCtyh7+NjhbRmKo8qIyTcPwj7sTfRSk95Cq5uXXlrXVyX4Zy
9dYE5bF9e7e47pffay16Q1OI1ly9MjTxe4RE62Pwp6kRohwEiKXkc79h0O23Z0+J
fpDAJJj/QlAtm88NKKRJHTaU6oXE1nq23/V4CBnyMI90hlrtwM/xHlq9BpePh4mT
2slgUGkUa1/EgkIEUP7Q6AL94qIy4+VeWTHY9kpSaWhR87kOkpASpschunnLo0mw
ytRbsCpD
-----END CERTIFICATE-----
