Certificate:
    Data:
        Version: 1 (0x0)
        Serial Number:
            62:42:d1:84:9f:8d:de:71:13:07:08:2a:66:cc:88:92:77:ad:82:4e
        Signature Algorithm: NULL
        Issuer: C = US, ST = CA, L = Santa Clara, O = Real Time Innovations, emailAddress = ecdsa01ParticipantB@rti.com, CN = Whitelist Participant B
        Validity
            Not Before: Nov  9 17:43:57 2023 GMT
            Not After : Nov  8 17:43:57 2025 GMT
        Subject: C = US, ST = CA, L = Santa Clara, O = Real Time Innovations, emailAddress = ecdsa01ParticipantB@rti.com, CN = Whitelist Participant B
        Subject Public Key Info:
            Public Key Algorithm: rsaEncryption
                RSA Public-Key: (2048 bit)
                Modulus:
                    00:b0:eb:b1:01:27:7e:14:a0:41:31:8a:2f:cc:1d:
                    9e:7e:59:e7:d0:47:4b:17:8a:03:be:55:59:11:d3:
                    9f:09:77:6e:c3:0a:90:a2:04:30:4e:b4:88:5a:d7:
                    00:3e:51:88:dc:96:f2:4d:e3:91:3b:bf:5b:43:38:
                    af:df:92:60:b2:94:71:f1:1d:b9:d6:32:f2:71:6d:
                    76:a3:ed:53:41:2a:eb:0e:05:e1:78:2d:33:47:c2:
                    87:3b:0b:9d:3d:ac:f4:9e:83:bf:ad:99:1e:7d:e7:
                    12:47:00:5c:6b:56:0b:11:d7:1b:65:29:97:81:7f:
                    96:0d:3d:9d:d2:88:81:14:f5:75:38:79:e8:86:0f:
                    bb:91:3e:b3:36:08:18:34:06:9d:2d:f6:f3:dd:d3:
                    7d:2e:07:e2:86:c2:e9:c6:8c:9f:a3:85:50:91:22:
                    1b:74:f9:45:42:6b:42:aa:94:7b:e8:3f:22:3e:7b:
                    61:b3:7d:6a:d1:2a:b0:82:ec:d1:64:98:08:20:be:
                    35:f3:12:51:d5:75:26:48:b5:ad:e1:ed:a7:33:bc:
                    f6:3e:96:e7:83:fc:55:b0:28:ee:5d:37:98:61:f8:
                    6f:01:39:7e:b1:44:e9:42:d6:e4:a3:22:10:be:d5:
                    b5:2b:24:b9:0c:34:10:07:56:a1:51:2f:6f:f1:59:
                    8d:d9
                Exponent: 65537 (0x10001)
    Signature Algorithm: NULL
-----BEGIN CERTIFICATE-----
MIIC7TCCApQCAQMwCgYIKoZIzj0EAwIwgZsxCzAJBgNVBAYTAlVTMQswCQYDVQQI
DAJDQTEUMBIGA1UEBwwLU2FudGEgQ2xhcmExHjAcBgNVBAoMFVJlYWwgVGltZSBJ
bm5vdmF0aW9uczEjMCEGA1UEAwwaUlRJIEVDRFNBMDEgKHAyNTYpIFJPT1QgQ0Ex
JDAiBgkqhkiG9w0BCQEWFWVjZHNhMDFSb290Q2FAcnRpLmNvbTAeFw0yMzExMDkx
NzQzNTdaFw0yNTExMDgxNzQzNTdaMIGeMQswCQYDVQQGEwJVUzELMAkGA1UECAwC
Q0ExFDASBgNVBAcMC1NhbnRhIENsYXJhMR4wHAYDVQQKDBVSZWFsIFRpbWUgSW5u
b3ZhdGlvbnMxKjAoBgkqhkiG9w0BCQEWG2VjZHNhMDFQYXJ0aWNpcGFudEJAcnRp
LmNvbTEgMB4GA1UEAwwXV2hpdGVsaXN0IFBhcnRpY2lwYW50IEIwggEiMA0GCSqG
SIb3DQEBAQUAA4IBDwAwggEKAoIBAQCw67EBJ34UoEExii/MHZ5+WefQR0sXigO+
VVkR058Jd27DCpCiBDBOtIha1wA+UYjclvJN45E7v1tDOK/fkmCylHHxHbnWMvJx
bXaj7VNBKusOBeF4LTNHwoc7C509rPSeg7+tmR595xJHAFxrVgsR1xtlKZeBf5YN
PZ3SiIEU9XU4eeiGD7uRPrM2CBg0Bp0t9vPd030uB+KGwunGjJ+jhVCRIht0+UVC
a0KqlHvoPyI+e2GzfWrRKrCC7NFkmAggvjXzElHVdSZIta3h7aczvPY+lueD/FWw
KO5dN5hh+G8BOX6xROlC1uSjIhC+1bUrJLkMNBAHVqFRL2/xWY3ZAgMBAAEwCgYI
KoZIzj0EAwIDRwAwRAIgOEMnhCS69biVLBR9ZkgdeqJRVNBoCbtV+MH13X0+EcYC
IHT9mr9gDwodXp/Opwdayh2SyjE1HuZ6kHHVWZIihPnM
-----END CERTIFICATE-----
