Certificate:
    Data:
        Version: 1 (0x0)
        Serial Number:
            93:ef:90:1f:a8:ae:95:1d
    Signature Algorithm: ecdsa-with-SHA256
        Issuer: C=US, ST=CA, L=Santa Clara, O=Real Time Innovations, CN=RTI CA/emailAddress=secure@rti.com
        Validity
            Not Before: Mar  1 06:14:50 2019 GMT
            Not After : Feb 28 06:14:50 2024 GMT
        Subject: C=US, ST=CA, L=Santa Clara, O=Real Time Innovations, CN=RTI CA/emailAddress=secure@rti.com
        Subject Public Key Info:
            Public Key Algorithm: id-ecPublicKey
                Public-Key: (256 bit)
                pub: 
                    04:18:bb:2a:a7:91:c1:aa:11:62:c3:e4:bc:64:a4:
                    98:97:2c:9c:61:89:5e:95:1f:38:c0:c7:a9:99:b2:
                    f3:43:44:31:4e:60:d3:53:b1:10:5e:e4:f1:96:0a:
                    c7:b8:1f:10:65:af:a7:e3:ac:c1:b8:9f:a9:38:d5:
                    44:5d:46:fc:10
                ASN1 OID: prime256v1
                NIST CURVE: P-256
    Signature Algorithm: ecdsa-with-SHA256
         30:46:02:21:00:dc:d7:c8:28:12:a1:77:9a:2e:41:d5:83:6c:
         a5:df:ec:b7:8d:04:39:44:45:55:b0:da:e0:7f:65:7f:5a:49:
         cc:02:21:00:ec:3d:74:27:fb:90:97:c8:ba:06:53:56:d6:22:
         15:21:fe:1f:42:bd:f0:e5:e7:8b:41:de:e1:d4:cc:3a:d6:7c
-----BEGIN CERTIFICATE-----
MIIB8zCCAZgCCQCT75AfqK6VHTAKBggqhkjOPQQDAjCBgDELMAkGA1UEBhMCVVMx
CzAJBgNVBAgMAkNBMRQwEgYDVQQHDAtTYW50YSBDbGFyYTEeMBwGA1UECgwVUmVh
bCBUaW1lIElubm92YXRpb25zMQ8wDQYDVQQDDAZSVEkgQ0ExHTAbBgkqhkiG9w0B
CQEWDnNlY3VyZUBydGkuY29tMB4XDTE5MDMwMTA2MTQ1MFoXDTI0MDIyODA2MTQ1
MFowgYAxCzAJBgNVBAYTAlVTMQswCQYDVQQIDAJDQTEUMBIGA1UEBwwLU2FudGEg
Q2xhcmExHjAcBgNVBAoMFVJlYWwgVGltZSBJbm5vdmF0aW9uczEPMA0GA1UEAwwG
UlRJIENBMR0wGwYJKoZIhvcNAQkBFg5zZWN1cmVAcnRpLmNvbTBZMBMGByqGSM49
AgEGCCqGSM49AwEHA0IABBi7KqeRwaoRYsPkvGSkmJcsnGGJXpUfOMDHqZmy80NE
MU5g01OxEF7k8ZYKx7gfEGWvp+OswbifqTjVRF1G/BAwCgYIKoZIzj0EAwIDSQAw
RgIhANzXyCgSoXeaLkHVg2yl3+y3jQQ5REVVsNrgf2V/WknMAiEA7D10J/uQl8i6
BlNW1iIVIf4fQr3w5eeLQd7h1Mw61nw=
-----END CERTIFICATE-----
