Certificate:
    Data:
        Version: 1 (0x0)
        Serial Number:
            10:21:a1:d6:39:91:1a:c6:4f:8e:e7:26:b3:f7:64:87:5a:9f:c6:50
        Signature Algorithm: ecdsa-with-SHA256
        Issuer: C = US, ST = CA, L = Santa Clara, O = Real Time Innovations, CN = RTI ECDSA01 (p256) ROOT CA, emailAddress = ecdsa01RootCa@rti.com
        Validity
            Not Before: Jul  1 07:55:16 2023 GMT
            Not After : Jun 29 07:55:16 2028 GMT
        Subject: C = US, ST = CA, O = Real Time Innovations, CN = RTI ECDSA01 (p256) PEER22 (revoked), emailAddress = ecdsa01Peer22@rti.com
        Subject Public Key Info:
            Public Key Algorithm: id-ecPublicKey
                Public-Key: (256 bit)
                pub:
                    04:3f:ef:21:c3:38:fb:d8:e4:6d:f5:6d:cb:ec:c4:
                    ff:21:e8:8e:a4:d3:a8:90:aa:3c:f3:8a:a1:39:f2:
                    90:67:93:93:84:46:6b:87:1c:27:d9:a5:da:15:fe:
                    75:00:79:42:e2:68:85:8a:b7:86:31:ff:17:ff:f0:
                    3d:e1:03:47:a6
                ASN1 OID: prime256v1
                NIST CURVE: P-256
    Signature Algorithm: ecdsa-with-SHA256
    Signature Value:
        30:44:02:20:6d:16:7f:67:08:d4:32:9f:fd:63:f6:5f:cd:a6:
        a8:ed:3c:9e:a2:2d:ec:8d:e0:56:71:a8:fc:52:42:bc:76:33:
        02:20:13:39:95:e4:74:13:62:55:4a:28:fc:95:ed:37:bf:c5:
        7f:2d:34:0b:a2:a1:c1:1f:41:de:00:4f:94:55:95:77
-----BEGIN CERTIFICATE-----
MIICJTCCAcwCFBAhodY5kRrGT47nJrP3ZIdan8ZQMAoGCCqGSM49BAMCMIGbMQsw
CQYDVQQGEwJVUzELMAkGA1UECAwCQ0ExFDASBgNVBAcMC1NhbnRhIENsYXJhMR4w
HAYDVQQKDBVSZWFsIFRpbWUgSW5ub3ZhdGlvbnMxIzAhBgNVBAMMGlJUSSBFQ0RT
QTAxIChwMjU2KSBST09UIENBMSQwIgYJKoZIhvcNAQkBFhVlY2RzYTAxUm9vdENh
QHJ0aS5jb20wHhcNMjMwNzAxMDc1NTE2WhcNMjgwNjI5MDc1NTE2WjCBjjELMAkG
A1UEBhMCVVMxCzAJBgNVBAgMAkNBMR4wHAYDVQQKDBVSZWFsIFRpbWUgSW5ub3Zh
dGlvbnMxLDAqBgNVBAMMI1JUSSBFQ0RTQTAxIChwMjU2KSBQRUVSMjIgKHJldm9r
ZWQpMSQwIgYJKoZIhvcNAQkBFhVlY2RzYTAxUGVlcjIyQHJ0aS5jb20wWTATBgcq
hkjOPQIBBggqhkjOPQMBBwNCAAQ/7yHDOPvY5G31bcvsxP8h6I6k06iQqjzziqE5
8pBnk5OERmuHHCfZpdoV/nUAeULiaIWKt4Yx/xf/8D3hA0emMAoGCCqGSM49BAMC
A0cAMEQCIG0Wf2cI1DKf/WP2X82mqO08nqIt7I3gVnGo/FJCvHYzAiATOZXkdBNi
VUoo/JXtN7/Ffy00C6KhwR9B3gBPlFWVdw==
-----END CERTIFICATE-----
