Certificate:
    Data:
        Version: 1 (0x0)
        Serial Number:
            cf:7e:f1:62:ed:04:04:69:2e:df:9d:b4:7b:1b:98:55:7c:36:e9:9d
        Signature Algorithm: ecdsa-with-SHA256
        Issuer: C = US, ST = CA, L = Santa Clara, O = Real Time Innovations, CN = RTI ECDSA01 (p256) ROOT CA, emailAddress = ecdsa01RootCa@rti.com
        Validity
            Not Before: Jul  1 07:55:13 2023 GMT
            Not After : Jun 29 07:55:13 2028 GMT
        Subject: C = US, ST = CA, O = Real Time Innovations, CN = RTI ECDSA01 (p256) PEER01, emailAddress = ecdsa01Peer01@rti.com
        Subject Public Key Info:
            Public Key Algorithm: id-ecPublicKey
                Public-Key: (256 bit)
                pub:
                    04:94:20:91:61:20:e8:50:c4:bd:9e:b3:1f:73:46:
                    bd:fd:9f:c2:38:b3:4d:1d:a6:c8:b3:cf:b0:c6:33:
                    74:90:90:bb:78:13:5f:2b:b9:64:e6:48:11:44:32:
                    51:a3:4b:f2:02:41:dd:f4:bc:b4:f4:23:ff:c6:d8:
                    2a:1a:20:5c:62
                ASN1 OID: prime256v1
                NIST CURVE: P-256
    Signature Algorithm: ecdsa-with-SHA256
    Signature Value:
        30:46:02:21:00:85:9c:9f:04:f8:ee:f8:65:ea:1f:b0:4d:a1:
        53:23:95:69:ec:db:b0:5c:29:43:6b:5b:74:6b:04:47:89:c2:
        4c:02:21:00:eb:a5:fc:a8:97:7c:53:c0:0c:4d:78:cf:c0:5c:
        d2:49:a4:c8:6a:ee:7e:2f:3c:53:91:54:00:dc:3f:f2:e2:93
-----BEGIN CERTIFICATE-----
MIICHjCCAcMCFQDPfvFi7QQEaS7fnbR7G5hVfDbpnTAKBggqhkjOPQQDAjCBmzEL
MAkGA1UEBhMCVVMxCzAJBgNVBAgMAkNBMRQwEgYDVQQHDAtTYW50YSBDbGFyYTEe
MBwGA1UECgwVUmVhbCBUaW1lIElubm92YXRpb25zMSMwIQYDVQQDDBpSVEkgRUNE
U0EwMSAocDI1NikgUk9PVCBDQTEkMCIGCSqGSIb3DQEJARYVZWNkc2EwMVJvb3RD
YUBydGkuY29tMB4XDTIzMDcwMTA3NTUxM1oXDTI4MDYyOTA3NTUxM1owgYQxCzAJ
BgNVBAYTAlVTMQswCQYDVQQIDAJDQTEeMBwGA1UECgwVUmVhbCBUaW1lIElubm92
YXRpb25zMSIwIAYDVQQDDBlSVEkgRUNEU0EwMSAocDI1NikgUEVFUjAxMSQwIgYJ
KoZIhvcNAQkBFhVlY2RzYTAxUGVlcjAxQHJ0aS5jb20wWTATBgcqhkjOPQIBBggq
hkjOPQMBBwNCAASUIJFhIOhQxL2esx9zRr39n8I4s00dpsizz7DGM3SQkLt4E18r
uWTmSBFEMlGjS/ICQd30vLT0I//G2CoaIFxiMAoGCCqGSM49BAMCA0kAMEYCIQCF
nJ8E+O74ZeofsE2hUyOVaezbsFwpQ2tbdGsER4nCTAIhAOul/KiXfFPADE14z8Bc
0kmkyGrufi88U5FUANw/8uKT
-----END CERTIFICATE-----
