Certificate:
    Data:
        Version: 1 (0x0)
        Serial Number:
            55:5a:5a:cb:e6:64:02:10:55:c5:37:05:aa:eb:e9:84:ed:e3:7b:e6
        Signature Algorithm: ecdsa-with-SHA256
        Issuer: C = US, ST = CA, L = Santa Clara, O = Real Time Innovations, CN = RTI ECDSA01 (p256) ROOT CA, emailAddress = ecdsa01RootCa@rti.com
        Validity
            Not Before: Jul  1 07:55:18 2023 GMT
            Not After : Jun 29 07:55:18 2028 GMT
        Subject: C = US, ST = CA, O = Real Time Innovations, CN = RTI ECDSA01 (p256) QsDomainParticipant, emailAddress = ecdsa01QsDomainParticipant@rti.com
        Subject Public Key Info:
            Public Key Algorithm: id-ecPublicKey
                Public-Key: (256 bit)
                pub:
                    04:10:8f:78:36:cf:68:a2:be:d6:3b:09:f9:28:de:
                    26:46:27:09:10:fb:cd:7e:55:17:ed:62:c2:9b:4a:
                    d2:c0:38:31:97:96:13:97:ed:04:4e:1d:c6:99:d3:
                    4c:71:22:fe:8f:85:19:5a:fa:c6:a4:d4:b1:7a:0b:
                    82:95:0b:d6:8e
                ASN1 OID: prime256v1
                NIST CURVE: P-256
    Signature Algorithm: ecdsa-with-SHA256
    Signature Value:
        30:44:02:20:17:30:c7:11:93:65:14:dc:31:45:83:82:64:78:
        70:bc:8c:e6:5a:b3:93:93:02:f2:ea:2e:51:5c:71:04:05:7f:
        02:20:6d:86:3c:b9:cb:15:27:af:33:11:a6:6d:42:2e:fa:b0:
        02:f0:e4:8e:a9:78:e1:f7:01:c8:f2:4f:1b:f2:2c:13
-----BEGIN CERTIFICATE-----
MIICNTCCAdwCFFVaWsvmZAIQVcU3Barr6YTt43vmMAoGCCqGSM49BAMCMIGbMQsw
CQYDVQQGEwJVUzELMAkGA1UECAwCQ0ExFDASBgNVBAcMC1NhbnRhIENsYXJhMR4w
HAYDVQQKDBVSZWFsIFRpbWUgSW5ub3ZhdGlvbnMxIzAhBgNVBAMMGlJUSSBFQ0RT
QTAxIChwMjU2KSBST09UIENBMSQwIgYJKoZIhvcNAQkBFhVlY2RzYTAxUm9vdENh
QHJ0aS5jb20wHhcNMjMwNzAxMDc1NTE4WhcNMjgwNjI5MDc1NTE4WjCBnjELMAkG
A1UEBhMCVVMxCzAJBgNVBAgMAkNBMR4wHAYDVQQKDBVSZWFsIFRpbWUgSW5ub3Zh
dGlvbnMxLzAtBgNVBAMMJlJUSSBFQ0RTQTAxIChwMjU2KSBRc0RvbWFpblBhcnRp
Y2lwYW50MTEwLwYJKoZIhvcNAQkBFiJlY2RzYTAxUXNEb21haW5QYXJ0aWNpcGFu
dEBydGkuY29tMFkwEwYHKoZIzj0CAQYIKoZIzj0DAQcDQgAEEI94Ns9oor7WOwn5
KN4mRicJEPvNflUX7WLCm0rSwDgxl5YTl+0ETh3GmdNMcSL+j4UZWvrGpNSxeguC
lQvWjjAKBggqhkjOPQQDAgNHADBEAiAXMMcRk2UU3DFFg4JkeHC8jOZas5OTAvLq
LlFccQQFfwIgbYY8ucsVJ68zEaZtQi76sALw5I6peOH3AcjyTxvyLBM=
-----END CERTIFICATE-----
