Certificate:
    Data:
        Version: 1 (0x0)
        Serial Number:
            ff:10:9d:7e:df:cc:7f:33:33:a9:83:1d:da:ca:02:a0:1c:1b:a8:98
        Signature Algorithm: ecdsa-with-SHA256
        Issuer: C = US, ST = CA, L = Santa Clara, O = Real Time Innovations, CN = RTI ECDSA01 (p256) ROOT CA, emailAddress = ecdsa01RootCa@rti.com
        Validity
            Not Before: Jul  1 07:55:17 2023 GMT
            Not After : Jun 29 07:55:17 2028 GMT
        Subject: C = US, ST = CA, O = Real Time Innovations, CN = RTI ECDSA01 (p256) PEER22 (revoked), emailAddress = ecdsa01Peer22@rti.com
        Subject Public Key Info:
            Public Key Algorithm: id-ecPublicKey
                Public-Key: (256 bit)
                pub:
                    04:3f:ef:21:c3:38:fb:d8:e4:6d:f5:6d:cb:ec:c4:
                    ff:21:e8:8e:a4:d3:a8:90:aa:3c:f3:8a:a1:39:f2:
                    90:67:93:93:84:46:6b:87:1c:27:d9:a5:da:15:fe:
                    75:00:79:42:e2:68:85:8a:b7:86:31:ff:17:ff:f0:
                    3d:e1:03:47:a6
                ASN1 OID: prime256v1
                NIST CURVE: P-256
    Signature Algorithm: ecdsa-with-SHA256
    Signature Value:
        30:45:02:20:55:62:5a:20:d9:4e:b0:59:6e:84:3e:1a:bf:9e:
        09:09:16:dd:7d:55:b2:2b:7a:ac:e0:d1:75:79:92:81:fe:d0:
        02:21:00:a7:73:46:2e:6d:8a:02:24:3b:58:52:a8:d4:f0:20:
        2b:26:e1:d2:36:df:b7:e1:54:a7:bd:63:d8:2f:fb:86:64
-----BEGIN CERTIFICATE-----
MIICJzCCAc0CFQD/EJ1+38x/MzOpgx3aygKgHBuomDAKBggqhkjOPQQDAjCBmzEL
MAkGA1UEBhMCVVMxCzAJBgNVBAgMAkNBMRQwEgYDVQQHDAtTYW50YSBDbGFyYTEe
MBwGA1UECgwVUmVhbCBUaW1lIElubm92YXRpb25zMSMwIQYDVQQDDBpSVEkgRUNE
U0EwMSAocDI1NikgUk9PVCBDQTEkMCIGCSqGSIb3DQEJARYVZWNkc2EwMVJvb3RD
YUBydGkuY29tMB4XDTIzMDcwMTA3NTUxN1oXDTI4MDYyOTA3NTUxN1owgY4xCzAJ
BgNVBAYTAlVTMQswCQYDVQQIDAJDQTEeMBwGA1UECgwVUmVhbCBUaW1lIElubm92
YXRpb25zMSwwKgYDVQQDDCNSVEkgRUNEU0EwMSAocDI1NikgUEVFUjIyIChyZXZv
a2VkKTEkMCIGCSqGSIb3DQEJARYVZWNkc2EwMVBlZXIyMkBydGkuY29tMFkwEwYH
KoZIzj0CAQYIKoZIzj0DAQcDQgAEP+8hwzj72ORt9W3L7MT/IeiOpNOokKo884qh
OfKQZ5OThEZrhxwn2aXaFf51AHlC4miFireGMf8X//A94QNHpjAKBggqhkjOPQQD
AgNIADBFAiBVYlog2U6wWW6EPhq/ngkJFt19VbIreqzg0XV5koH+0AIhAKdzRi5t
igIkO1hSqNTwICsm4dI237fhVKe9Y9gv+4Zk
-----END CERTIFICATE-----
