Certificate:
    Data:
        Version: 1 (0x0)
        Serial Number:
            79:18:e8:20:70:00:db:44:75:00:e5:55:29:c1:25:fa:f0:3d:95:e0
        Signature Algorithm: ecdsa-with-SHA256
        Issuer: C = US, ST = CA, L = Santa Clara, O = Real Time Innovations, CN = RTI ECDSA01 (p256) ROOT CA, emailAddress = ecdsa01RootCa@rti.com
        Validity
            Not Before: Jul  1 07:55:13 2023 GMT
            Not After : Jun 29 07:55:13 2028 GMT
        Subject: C = US, ST = CA, O = Real Time Innovations, CN = RTI ECDSA01 (p256) PEER02, emailAddress = ecdsa01Peer02@rti.com
        Subject Public Key Info:
            Public Key Algorithm: id-ecPublicKey
                Public-Key: (256 bit)
                pub:
                    04:3f:c4:e5:31:22:30:b2:09:f8:c1:9e:7f:42:29:
                    2f:50:b2:44:3a:e1:52:b8:dc:79:e4:e4:a6:55:43:
                    0d:6a:61:bd:cb:8c:7a:9c:e0:47:ee:b6:24:a4:ec:
                    ef:00:01:0a:30:8f:9d:2e:a8:fa:81:0a:2d:8a:84:
                    1b:4d:67:f0:32
                ASN1 OID: prime256v1
                NIST CURVE: P-256
    Signature Algorithm: ecdsa-with-SHA256
    Signature Value:
        30:45:02:20:1b:d7:2c:62:ef:8a:bd:38:03:f0:10:dd:f6:26:
        ba:55:15:f2:31:58:36:95:75:35:c3:0e:33:b8:c9:e6:8a:36:
        02:21:00:cc:cb:3c:0c:87:6e:94:ef:37:ca:55:b7:66:d4:7b:
        61:28:c2:b0:d8:9b:5c:a8:ef:24:a2:82:18:30:8b:5c:4c
-----BEGIN CERTIFICATE-----
MIICHDCCAcICFHkY6CBwANtEdQDlVSnBJfrwPZXgMAoGCCqGSM49BAMCMIGbMQsw
CQYDVQQGEwJVUzELMAkGA1UECAwCQ0ExFDASBgNVBAcMC1NhbnRhIENsYXJhMR4w
HAYDVQQKDBVSZWFsIFRpbWUgSW5ub3ZhdGlvbnMxIzAhBgNVBAMMGlJUSSBFQ0RT
QTAxIChwMjU2KSBST09UIENBMSQwIgYJKoZIhvcNAQkBFhVlY2RzYTAxUm9vdENh
QHJ0aS5jb20wHhcNMjMwNzAxMDc1NTEzWhcNMjgwNjI5MDc1NTEzWjCBhDELMAkG
A1UEBhMCVVMxCzAJBgNVBAgMAkNBMR4wHAYDVQQKDBVSZWFsIFRpbWUgSW5ub3Zh
dGlvbnMxIjAgBgNVBAMMGVJUSSBFQ0RTQTAxIChwMjU2KSBQRUVSMDIxJDAiBgkq
hkiG9w0BCQEWFWVjZHNhMDFQZWVyMDJAcnRpLmNvbTBZMBMGByqGSM49AgEGCCqG
SM49AwEHA0IABD/E5TEiMLIJ+MGef0IpL1CyRDrhUrjceeTkplVDDWphvcuMepzg
R+62JKTs7wABCjCPnS6o+oEKLYqEG01n8DIwCgYIKoZIzj0EAwIDSAAwRQIgG9cs
Yu+KvTgD8BDd9ia6VRXyMVg2lXU1ww4zuMnmijYCIQDMyzwMh26U7zfKVbdm1Hth
KMKw2JtcqO8kooIYMItcTA==
-----END CERTIFICATE-----
