Certificate:
    Data:
        Version: 1 (0x0)
        Serial Number:
            5e:02:a5:71:b7:19:c6:ef:fb:12:10:d1:00:f9:5d:ab:ca:d6:f4:7a
        Signature Algorithm: ecdsa-with-SHA256
        Issuer: C = US, ST = CA, L = Santa Clara, O = Real Time Innovations, CN = RTI ECDSA01 (p256) ROOT CA, emailAddress = ecdsa01RootCa@rti.com
        Validity
            Not Before: Jul  1 07:55:14 2023 GMT
            Not After : Jun 29 07:55:14 2028 GMT
        Subject: C = US, ST = CA, O = Real Time Innovations, CN = RTI ECDSA01 (p256) PEER03, emailAddress = ecdsa01Peer03@rti.com
        Subject Public Key Info:
            Public Key Algorithm: id-ecPublicKey
                Public-Key: (256 bit)
                pub:
                    04:07:e1:00:f7:af:3f:40:a3:e0:23:87:f2:55:12:
                    02:73:7f:62:69:90:85:fe:15:52:ae:15:28:0d:8e:
                    02:cb:99:2f:38:75:a7:d0:a0:27:2b:3e:1a:ed:eb:
                    14:9d:7a:30:1d:24:f6:80:ba:e6:59:5b:d6:45:0b:
                    59:e0:2a:25:00
                ASN1 OID: prime256v1
                NIST CURVE: P-256
    Signature Algorithm: ecdsa-with-SHA256
    Signature Value:
        30:44:02:20:33:86:05:ca:24:a6:e3:dd:e4:c1:28:cc:b2:4c:
        bc:e9:f6:2e:31:18:c9:24:d8:43:be:a3:32:77:f9:69:2b:1d:
        02:20:4c:80:3f:7c:8a:b4:19:74:76:d8:59:64:3d:77:7d:35:
        c3:41:c3:64:04:14:b3:a4:7f:31:cf:0e:48:5a:86:98
-----BEGIN CERTIFICATE-----
MIICGzCCAcICFF4CpXG3Gcbv+xIQ0QD5XavK1vR6MAoGCCqGSM49BAMCMIGbMQsw
CQYDVQQGEwJVUzELMAkGA1UECAwCQ0ExFDASBgNVBAcMC1NhbnRhIENsYXJhMR4w
HAYDVQQKDBVSZWFsIFRpbWUgSW5ub3ZhdGlvbnMxIzAhBgNVBAMMGlJUSSBFQ0RT
QTAxIChwMjU2KSBST09UIENBMSQwIgYJKoZIhvcNAQkBFhVlY2RzYTAxUm9vdENh
QHJ0aS5jb20wHhcNMjMwNzAxMDc1NTE0WhcNMjgwNjI5MDc1NTE0WjCBhDELMAkG
A1UEBhMCVVMxCzAJBgNVBAgMAkNBMR4wHAYDVQQKDBVSZWFsIFRpbWUgSW5ub3Zh
dGlvbnMxIjAgBgNVBAMMGVJUSSBFQ0RTQTAxIChwMjU2KSBQRUVSMDMxJDAiBgkq
hkiG9w0BCQEWFWVjZHNhMDFQZWVyMDNAcnRpLmNvbTBZMBMGByqGSM49AgEGCCqG
SM49AwEHA0IABAfhAPevP0Cj4COH8lUSAnN/YmmQhf4VUq4VKA2OAsuZLzh1p9Cg
Jys+Gu3rFJ16MB0k9oC65llb1kULWeAqJQAwCgYIKoZIzj0EAwIDRwAwRAIgM4YF
yiSm493kwSjMsky86fYuMRjJJNhDvqMyd/lpKx0CIEyAP3yKtBl0dthZZD13fTXD
QcNkBBSzpH8xzw5IWoaY
-----END CERTIFICATE-----
