Certificate:
    Data:
        Version: 1 (0x0)
        Serial Number:
            5a:64:3a:b2:74:48:a4:55:fd:3f:96:49:b7:46:a6:d0:5e:b0:eb:5f
        Signature Algorithm: NULL
        Issuer: C = US, ST = CA, O = Real Time Innovations, emailAddress = you@rti.com, CN = dtlsexample2
        Validity
            Not Before: Jan 29 23:34:30 2021 GMT
            Not After : Jan 28 23:34:30 2026 GMT
        Subject: C = US, ST = CA, O = Real Time Innovations, emailAddress = you@rti.com, CN = dtlsexample2
        Subject Public Key Info:
            Public Key Algorithm: rsaEncryption
                RSA Public-Key: (2048 bit)
                Modulus:
                    00:f2:57:c5:99:a9:6a:01:39:95:2e:f0:c8:62:ae:
                    56:44:cd:f2:d2:1d:53:51:ed:17:71:68:77:e8:cf:
                    f6:ec:23:16:44:f1:02:a8:38:77:a7:4f:b0:4d:0e:
                    db:d7:ba:4f:b2:e6:f1:96:15:ac:68:3c:ac:0a:7a:
                    94:45:9b:e1:f9:8f:c5:00:aa:eb:17:95:fb:7c:9e:
                    e7:4a:53:ea:35:15:99:dd:ce:12:98:b7:b7:56:df:
                    c5:73:3d:c1:57:c3:a2:a8:f8:c2:54:a1:ad:d6:0b:
                    ae:9a:8a:26:ea:9c:3d:f0:6e:d8:22:95:b3:79:17:
                    18:d7:07:62:e3:17:90:4b:ac:c9:c8:ae:92:cd:64:
                    22:4c:23:5a:d7:3a:fa:03:96:26:f5:2e:8f:41:45:
                    a6:a2:18:8f:2a:60:a8:5f:2a:d4:b7:6b:3a:7b:fb:
                    00:e8:13:27:aa:10:c4:bf:d1:82:ca:6e:54:74:f7:
                    4f:dd:b7:6e:bb:95:31:e5:a2:8c:9a:0f:e2:1d:c5:
                    96:d6:1f:0b:b9:c2:8a:fc:18:3b:a8:13:99:28:bb:
                    a5:5f:d5:b6:65:80:c3:c4:ca:7f:a4:10:68:5e:c9:
                    0a:cc:13:0e:37:ef:cd:1e:98:bb:cf:ee:6f:f5:be:
                    a2:6f:ab:d6:79:39:b2:19:4e:54:f1:d3:d8:f7:dd:
                    92:b7
                Exponent: 65537 (0x10001)
    Signature Algorithm: NULL
-----BEGIN CERTIFICATE-----
MIIDejCCAmKgAwIBAgIUUm8q65AetXVcYzvlUbTdmgdvqj0wDQYJKoZIhvcNAQEL
BQAwgYAxCzAJBgNVBAYTAlVTMQswCQYDVQQIDAJDQTEUMBIGA1UEBwwLU2FudGEg
Q2xhcmExHjAcBgNVBAoMFVJlYWwgVGltZSBJbm5vdmF0aW9uczEPMA0GA1UEAwwG
UlRJIENBMR0wGwYJKoZIhvcNAQkBFg5zZWN1cmVAcnRpLmNvbTAeFw0yMTAxMjky
MzM0MzBaFw0yNjAxMjgyMzM0MzBaMG0xCzAJBgNVBAYTAlVTMQswCQYDVQQIDAJD
QTEeMBwGA1UECgwVUmVhbCBUaW1lIElubm92YXRpb25zMRowGAYJKoZIhvcNAQkB
Fgt5b3VAcnRpLmNvbTEVMBMGA1UEAwwMZHRsc2V4YW1wbGUyMIIBIjANBgkqhkiG
9w0BAQEFAAOCAQ8AMIIBCgKCAQEA8lfFmalqATmVLvDIYq5WRM3y0h1TUe0XcWh3
6M/27CMWRPECqDh3p0+wTQ7b17pPsubxlhWsaDysCnqURZvh+Y/FAKrrF5X7fJ7n
SlPqNRWZ3c4SmLe3Vt/Fcz3BV8OiqPjCVKGt1guumoom6pw98G7YIpWzeRcY1wdi
4xeQS6zJyK6SzWQiTCNa1zr6A5Ym9S6PQUWmohiPKmCoXyrUt2s6e/sA6BMnqhDE
v9GCym5UdPdP3bduu5Ux5aKMmg/iHcWW1h8LucKK/Bg7qBOZKLulX9W2ZYDDxMp/
pBBoXskKzBMON+/NHpi7z+5v9b6ib6vWeTmyGU5U8dPY992StwIDAQABMA0GCSqG
SIb3DQEBCwUAA4IBAQAmDM1zoKdFbEgB0S+G2qT7vmBN2SV6KLxs7p9OIzcW6la/
VLFvriEsMnk+uJhkQXRTahb/zvUQMGtbSlbfTr2f0xUnzwmlpfyH9lt8AE+XGmX5
xkAs72/i0jtpFz7aBdMc2jT1QOMlCt1gxtY5/ZwnhJkJCI1uowSu3e7JQOkfgrKi
4ugqOpgi0eIAmLvL10snfugCVSxL69j+8+AD/56I9/ZuBqzzyyCegFDjLhsUMdao
tAC+woUjkeRg032XNPCrr700oaFvdCgXxU5Ls9LTEsLuNa2mRTd/Spm66Ew9bi2U
gnk72XKlxTvjT9P+MNKXFUKLeeE0T1m1eg9v16s+
-----END CERTIFICATE-----
