Certificate:
    Data:
        Version: 1 (0x0)
        Serial Number:
            5f:6c:04:81:5a:8f:b6:07:7b:9a:27:54:56:aa:fa:ff:7b:91:e2:93
        Signature Algorithm: NULL
        Issuer: C = US, ST = CA, O = Real Time Innovations, emailAddress = me@rti.com, CN = dtlsexample
        Validity
            Not Before: Jan 29 23:34:29 2021 GMT
            Not After : Jan 28 23:34:29 2026 GMT
        Subject: C = US, ST = CA, O = Real Time Innovations, emailAddress = me@rti.com, CN = dtlsexample
        Subject Public Key Info:
            Public Key Algorithm: rsaEncryption
                RSA Public-Key: (2048 bit)
                Modulus:
                    00:e1:a5:08:15:e3:ee:86:5c:c3:e8:ae:52:5a:07:
                    c9:9c:bc:f8:dc:78:bd:bd:65:0d:cc:d4:88:79:07:
                    0c:0f:3c:12:49:85:ea:10:ee:d4:0c:a1:ce:7d:56:
                    bb:a9:d7:47:59:d8:f1:8c:35:24:2f:0d:d2:97:02:
                    ef:b2:9d:7e:fc:27:3e:f1:aa:70:f0:27:90:d0:c7:
                    f9:c7:b2:de:3a:9a:03:ea:29:51:41:33:84:c3:ce:
                    f3:82:83:b8:8e:0e:f1:bb:67:fd:24:e2:87:de:dc:
                    51:3d:20:2e:f1:9b:3a:4e:15:51:74:04:f6:b9:0d:
                    89:7e:86:da:ef:02:a3:e9:05:fe:f5:e1:db:78:e3:
                    7d:1e:05:d2:84:56:e6:88:b7:44:51:ca:b6:ad:5b:
                    d5:f5:c4:d7:c8:32:34:b6:dd:0f:3a:b3:2d:82:0c:
                    15:8e:08:c1:04:92:ee:54:1d:2a:5c:00:49:9a:87:
                    26:46:d8:e8:ad:3c:44:56:5d:b1:92:6d:c3:19:ea:
                    e9:39:f2:f5:eb:ff:93:9c:2f:ce:ba:6b:51:9b:c1:
                    9a:9e:bb:17:1e:8a:77:e2:ee:5d:62:a1:f4:8e:f1:
                    69:49:2a:cd:0c:86:55:e0:b7:f7:68:9f:65:b5:de:
                    e9:a9:e5:16:2e:99:4c:21:3a:23:13:b7:0a:98:0f:
                    8f:b5
                Exponent: 65537 (0x10001)
    Signature Algorithm: NULL
-----BEGIN CERTIFICATE-----
MIIDeDCCAmCgAwIBAgIUUm8q65AetXVcYzvlUbTdmgdvqjwwDQYJKoZIhvcNAQEL
BQAwgYAxCzAJBgNVBAYTAlVTMQswCQYDVQQIDAJDQTEUMBIGA1UEBwwLU2FudGEg
Q2xhcmExHjAcBgNVBAoMFVJlYWwgVGltZSBJbm5vdmF0aW9uczEPMA0GA1UEAwwG
UlRJIENBMR0wGwYJKoZIhvcNAQkBFg5zZWN1cmVAcnRpLmNvbTAeFw0yMTAxMjky
MzM0MjlaFw0yNjAxMjgyMzM0MjlaMGsxCzAJBgNVBAYTAlVTMQswCQYDVQQIDAJD
QTEeMBwGA1UECgwVUmVhbCBUaW1lIElubm92YXRpb25zMRkwFwYJKoZIhvcNAQkB
FgptZUBydGkuY29tMRQwEgYDVQQDDAtkdGxzZXhhbXBsZTCCASIwDQYJKoZIhvcN
AQEBBQADggEPADCCAQoCggEBAOGlCBXj7oZcw+iuUloHyZy8+Nx4vb1lDczUiHkH
DA88EkmF6hDu1Ayhzn1Wu6nXR1nY8Yw1JC8N0pcC77KdfvwnPvGqcPAnkNDH+cey
3jqaA+opUUEzhMPO84KDuI4O8btn/STih97cUT0gLvGbOk4VUXQE9rkNiX6G2u8C
o+kF/vXh23jjfR4F0oRW5oi3RFHKtq1b1fXE18gyNLbdDzqzLYIMFY4IwQSS7lQd
KlwASZqHJkbY6K08RFZdsZJtwxnq6Tny9ev/k5wvzrprUZvBmp67Fx6Kd+LuXWKh
9I7xaUkqzQyGVeC392ifZbXe6anlFi6ZTCE6IxO3CpgPj7UCAwEAATANBgkqhkiG
9w0BAQsFAAOCAQEAQmB001gW+Uoqvw78Mw/F4CRGTNIGws0a4VcC8q1LDuXS96Vz
X+jHmgf5w+VBIeh2c0uQ9dWP6mtMO3Ug4/HproQqIvclLse17+nkXw6I+0MGXq73
7hwQd95U8ho4PWmGFCuEvCG11Sou8mvEHyKB/XZtTWEasr0Jf69I8PvlrnxqXNDr
GIFJ0i9iKAU0USKxRNvDCoqDIpqUlmRdhVv20g5vMiDB7HKsVmCxIY3KqTEtDNGN
YGyPnmAqpL4NJf7zu0ktFK53cOjy2ZB/oSElA1AgJuxh2xPjOIprTvREualnH3zy
pgJBk/nXjHwu9ciIO6Jd+NFDlXNk+BwAzq76iQ==
-----END CERTIFICATE-----
