Certificate:
    Data:
        Version: 1 (0x0)
        Serial Number:
            3e:6a:22:1e:c3:52:54:90:cd:27:8d:8e:84:29:2a:15:56:6f:cd:98
        Signature Algorithm: ecdsa-with-SHA256
        Issuer: C = US, ST = CA, L = Santa Clara, O = Real Time Innovations, CN = RTI ECDSA01 (p256) ROOT CA, emailAddress = ecdsa01RootCa@rti.com
        Validity
            Not Before: Nov  9 19:42:36 2023 GMT
            Not After : Nov  7 19:42:36 2028 GMT
        Subject: C = US, ST = CA, L = Santa Clara, O = Real Time Innovations, CN = RTI ECDSA01 (p256) ROOT CA, emailAddress = ecdsa01RootCa@rti.com
        Subject Public Key Info:
            Public Key Algorithm: id-ecPublicKey
                Public-Key: (256 bit)
                pub:
                    04:ff:4e:24:05:ef:7a:8a:af:0f:32:a3:75:b9:ca:
                    16:0a:f2:d3:e4:74:7d:87:03:2a:82:68:2a:19:12:
                    c3:38:42:46:e5:d5:25:a1:cf:66:07:51:c9:c8:cc:
                    d8:c9:d5:5e:92:d7:d3:5b:e9:a2:63:76:8b:40:70:
                    22:5d:f3:91:75
                ASN1 OID: prime256v1
                NIST CURVE: P-256
    Signature Algorithm: ecdsa-with-SHA256
         30:45:02:20:4d:5e:97:f2:04:51:f8:bb:1f:53:66:d8:aa:65:
         9f:1a:49:6e:1e:f5:e5:cb:f5:42:89:cf:4b:3d:64:d0:25:5f:
         02:21:00:bd:d5:56:2f:1a:37:71:09:92:4f:ba:66:87:b3:89:
         59:ae:ba:22:54:09:ee:bd:56:3c:00:1e:1d:25:51:ce:65
-----BEGIN CERTIFICATE-----
MIICMzCCAdkCFD5qIh7DUlSQzSeNjoQpKhVWb82YMAoGCCqGSM49BAMCMIGbMQsw
CQYDVQQGEwJVUzELMAkGA1UECAwCQ0ExFDASBgNVBAcMC1NhbnRhIENsYXJhMR4w
HAYDVQQKDBVSZWFsIFRpbWUgSW5ub3ZhdGlvbnMxIzAhBgNVBAMMGlJUSSBFQ0RT
QTAxIChwMjU2KSBST09UIENBMSQwIgYJKoZIhvcNAQkBFhVlY2RzYTAxUm9vdENh
QHJ0aS5jb20wHhcNMjMxMTA5MTk0MjM2WhcNMjgxMTA3MTk0MjM2WjCBmzELMAkG
A1UEBhMCVVMxCzAJBgNVBAgMAkNBMRQwEgYDVQQHDAtTYW50YSBDbGFyYTEeMBwG
A1UECgwVUmVhbCBUaW1lIElubm92YXRpb25zMSMwIQYDVQQDDBpSVEkgRUNEU0Ew
MSAocDI1NikgUk9PVCBDQTEkMCIGCSqGSIb3DQEJARYVZWNkc2EwMVJvb3RDYUBy
dGkuY29tMFkwEwYHKoZIzj0CAQYIKoZIzj0DAQcDQgAE/04kBe96iq8PMqN1ucoW
CvLT5HR9hwMqgmgqGRLDOEJG5dUloc9mB1HJyMzYydVektfTW+miY3aLQHAiXfOR
dTAKBggqhkjOPQQDAgNIADBFAiBNXpfyBFH4ux9TZtiqZZ8aSW4e9eXL9UKJz0s9
ZNAlXwIhAL3VVi8aN3EJkk+6ZoeziVmuuiJUCe69VjwAHh0lUc5l
-----END CERTIFICATE-----
