Certificate:
    Data:
        Version: 1 (0x0)
        Serial Number:
            4d:e9:0f:6a:0e:1d:9f:9c:7c:7a:74:36:7e:0f:25:f4:32:c6:17:e9
        Signature Algorithm: NULL
        Issuer: C = US, ST = CA, O = Real Time Innovations, emailAddress = meECdsa@rti.com, CN = dtlsexampleECdsa
        Validity
            Not Before: Jan 29 23:34:19 2021 GMT
            Not After : Jan 28 23:34:19 2026 GMT
        Subject: C = US, ST = CA, O = Real Time Innovations, emailAddress = meECdsa@rti.com, CN = dtlsexampleECdsa
        Subject Public Key Info:
            Public Key Algorithm: id-ecPublicKey
                Public-Key: (256 bit)
                pub:
                    04:f2:bb:8b:0a:3b:3b:0d:16:97:77:a7:ae:13:ab:
                    c4:7e:0b:4e:5a:27:48:4d:c3:e5:4a:40:b1:b4:7a:
                    7e:80:a1:2c:45:4b:1b:6c:34:c9:6b:65:cf:81:e2:
                    5e:93:52:fc:64:c7:04:07:03:fa:58:36:18:03:f8:
                    d6:ec:02:25:06
                ASN1 OID: prime256v1
                NIST CURVE: P-256
    Signature Algorithm: NULL
-----BEGIN CERTIFICATE-----
MIIB9zCCAZygAwIBAgIUKzmVBJa5wUGVQYMSTT8vFnak67EwCgYIKoZIzj0EAwIw
gYAxCzAJBgNVBAYTAlVTMQswCQYDVQQIDAJDQTEUMBIGA1UEBwwLU2FudGEgQ2xh
cmExHjAcBgNVBAoMFVJlYWwgVGltZSBJbm5vdmF0aW9uczEPMA0GA1UEAwwGUlRJ
IENBMR0wGwYJKoZIhvcNAQkBFg5zZWN1cmVAcnRpLmNvbTAeFw0yMTAxMjkyMzM0
MTlaFw0yNjAxMjgyMzM0MTlaMHUxCzAJBgNVBAYTAlVTMQswCQYDVQQIDAJDQTEe
MBwGA1UECgwVUmVhbCBUaW1lIElubm92YXRpb25zMR4wHAYJKoZIhvcNAQkBFg9t
ZUVDZHNhQHJ0aS5jb20xGTAXBgNVBAMMEGR0bHNleGFtcGxlRUNkc2EwWTATBgcq
hkjOPQIBBggqhkjOPQMBBwNCAATyu4sKOzsNFpd3p64Tq8R+C05aJ0hNw+VKQLG0
en6AoSxFSxtsNMlrZc+B4l6TUvxkxwQHA/pYNhgD+NbsAiUGMAoGCCqGSM49BAMC
A0kAMEYCIQDeEqtt0oWXF7viLbiVtcX+s4yRG1A+8ZVWDyYXVHulcgIhAJofruW/
b8EuiR6LqVI4GKDkshaikeeDUJfiOVM94aql
-----END CERTIFICATE-----
