Certificate:
    Data:
        Version: 1 (0x0)
        Serial Number:
            59:64:33:5f:2a:e2:5e:10:b3:41:90:2a:fe:aa:06:5d:66:8a:23:70
        Signature Algorithm: NULL
        Issuer: C = US, ST = CA, O = Real Time Innovations, emailAddress = youECdsa@rti.com, CN = dtlsexample2ECdsa
        Validity
            Not Before: Jan 29 23:34:19 2021 GMT
            Not After : Jan 28 23:34:19 2026 GMT
        Subject: C = US, ST = CA, O = Real Time Innovations, emailAddress = youECdsa@rti.com, CN = dtlsexample2ECdsa
        Subject Public Key Info:
            Public Key Algorithm: id-ecPublicKey
                Public-Key: (256 bit)
                pub:
                    04:6f:46:22:63:56:cc:d9:27:e1:6c:ee:f4:96:b3:
                    d8:27:4c:60:0f:0c:8b:51:31:9b:11:44:29:ae:be:
                    36:62:46:a1:b4:e0:d1:af:ed:b8:d9:dd:f6:1e:5e:
                    5e:7a:c8:57:f9:a1:71:e1:b2:e8:c2:0a:b0:87:d9:
                    e1:ca:ce:93:00
                ASN1 OID: prime256v1
                NIST CURVE: P-256
    Signature Algorithm: NULL
-----BEGIN CERTIFICATE-----
MIIB+DCCAZ6gAwIBAgIUKzmVBJa5wUGVQYMSTT8vFnak67IwCgYIKoZIzj0EAwIw
gYAxCzAJBgNVBAYTAlVTMQswCQYDVQQIDAJDQTEUMBIGA1UEBwwLU2FudGEgQ2xh
cmExHjAcBgNVBAoMFVJlYWwgVGltZSBJbm5vdmF0aW9uczEPMA0GA1UEAwwGUlRJ
IENBMR0wGwYJKoZIhvcNAQkBFg5zZWN1cmVAcnRpLmNvbTAeFw0yMTAxMjkyMzM0
MTlaFw0yNjAxMjgyMzM0MTlaMHcxCzAJBgNVBAYTAlVTMQswCQYDVQQIDAJDQTEe
MBwGA1UECgwVUmVhbCBUaW1lIElubm92YXRpb25zMR8wHQYJKoZIhvcNAQkBFhB5
b3VFQ2RzYUBydGkuY29tMRowGAYDVQQDDBFkdGxzZXhhbXBsZTJFQ2RzYTBZMBMG
ByqGSM49AgEGCCqGSM49AwEHA0IABG9GImNWzNkn4Wzu9Jaz2CdMYA8Mi1ExmxFE
Ka6+NmJGobTg0a/tuNnd9h5eXnrIV/mhceGy6MIKsIfZ4crOkwAwCgYIKoZIzj0E
AwIDSAAwRQIhAOME0PUa1WxhYR9Wxv+eTwqTpNx8a4bwUTMaEClrBd/hAiA78ZQl
9Q+1eooDTP0JBHQYC6IKUbbG2rH5GkddwD0MgA==
-----END CERTIFICATE-----
