Certificate:
    Data:
        Version: 1 (0x0)
        Serial Number:
            15:83:8f:4c:b6:7d:76:22:ab:8a:25:ee:60:18:85:47:fe:72:63:0e
        Signature Algorithm: ecdsa-with-SHA256
        Issuer: C = US, ST = CA, L = Santa Clara, O = Real Time Innovations, CN = RTI ECDSA01 (p256) ROOT CA, emailAddress = ecdsa01RootCa@rti.com
        Validity
            Not Before: Nov  9 17:40:40 2023 GMT
            Not After : Nov  7 17:40:40 2028 GMT
        Subject: C = US, ST = CA, L = Santa Clara, O = Real Time Innovations, CN = RTI ECDSA01 (p256) ROOT CA, emailAddress = ecdsa01RootCa@rti.com
        Subject Public Key Info:
            Public Key Algorithm: id-ecPublicKey
                Public-Key: (256 bit)
                pub:
                    04:7c:5c:ed:b6:53:ee:d7:7a:66:5d:ed:2c:59:db:
                    db:88:8c:77:b3:31:87:07:51:8b:a9:73:fc:c3:12:
                    75:28:3c:e2:93:4d:5c:47:95:ff:7b:91:77:e5:98:
                    57:25:ec:06:bf:cb:eb:1a:6a:1e:44:68:6e:20:47:
                    ca:77:d5:48:af
                ASN1 OID: prime256v1
                NIST CURVE: P-256
    Signature Algorithm: ecdsa-with-SHA256
         30:45:02:20:2a:61:b5:5b:2f:df:1d:2c:ee:2b:b2:e2:bd:d3:
         49:77:59:0c:f2:11:8c:92:9b:9c:36:50:b4:cf:f6:ec:e7:66:
         02:21:00:94:24:af:96:c9:bd:a7:2d:e1:80:58:e8:4b:71:32:
         9d:42:7f:89:db:a3:e2:77:2d:85:53:3b:a4:e6:6a:f0:36
-----BEGIN CERTIFICATE-----
MIICMzCCAdkCFBWDj0y2fXYiq4ol7mAYhUf+cmMOMAoGCCqGSM49BAMCMIGbMQsw
CQYDVQQGEwJVUzELMAkGA1UECAwCQ0ExFDASBgNVBAcMC1NhbnRhIENsYXJhMR4w
HAYDVQQKDBVSZWFsIFRpbWUgSW5ub3ZhdGlvbnMxIzAhBgNVBAMMGlJUSSBFQ0RT
QTAxIChwMjU2KSBST09UIENBMSQwIgYJKoZIhvcNAQkBFhVlY2RzYTAxUm9vdENh
QHJ0aS5jb20wHhcNMjMxMTA5MTc0MDQwWhcNMjgxMTA3MTc0MDQwWjCBmzELMAkG
A1UEBhMCVVMxCzAJBgNVBAgMAkNBMRQwEgYDVQQHDAtTYW50YSBDbGFyYTEeMBwG
A1UECgwVUmVhbCBUaW1lIElubm92YXRpb25zMSMwIQYDVQQDDBpSVEkgRUNEU0Ew
MSAocDI1NikgUk9PVCBDQTEkMCIGCSqGSIb3DQEJARYVZWNkc2EwMVJvb3RDYUBy
dGkuY29tMFkwEwYHKoZIzj0CAQYIKoZIzj0DAQcDQgAEfFzttlPu13pmXe0sWdvb
iIx3szGHB1GLqXP8wxJ1KDzik01cR5X/e5F35ZhXJewGv8vrGmoeRGhuIEfKd9VI
rzAKBggqhkjOPQQDAgNIADBFAiAqYbVbL98dLO4rsuK900l3WQzyEYySm5w2ULTP
9uznZgIhAJQkr5bJvact4YBY6EtxMp1Cf4nbo+J3LYVTO6TmavA2
-----END CERTIFICATE-----
