Certificate:
    Data:
        Version: 1 (0x0)
        Serial Number:
            03:b7:f7:87:07:9c:69:36:84:9f:0e:fa:e7:7e:88:f2:0c:18:5b:1c
        Signature Algorithm: ecdsa-with-SHA256
        Issuer: C = US, ST = CA, L = Santa Clara, O = Real Time Innovations, CN = RTI ECDSA01 (p256) ROOT CA, emailAddress = ecdsa01RootCa@rti.com
        Validity
            Not Before: Jul  1 07:55:12 2023 GMT
            Not After : Jun 29 07:55:12 2028 GMT
        Subject: C = US, ST = CA, L = Santa Clara, O = Real Time Innovations, CN = RTI ECDSA01 (p256) ROOT CA, emailAddress = ecdsa01RootCa@rti.com
        Subject Public Key Info:
            Public Key Algorithm: id-ecPublicKey
                Public-Key: (256 bit)
                pub:
                    04:e6:0f:76:6f:16:b8:62:c5:e7:29:df:f9:9d:84:
                    80:f9:a8:30:ad:ed:db:83:cb:48:4f:70:24:9c:af:
                    cc:1f:5a:68:e3:6b:b7:2c:34:1a:ff:61:ad:f5:a3:
                    6c:3c:00:62:f8:e8:54:1e:2c:68:61:ec:3a:a5:8b:
                    25:d5:78:a4:49
                ASN1 OID: prime256v1
                NIST CURVE: P-256
    Signature Algorithm: ecdsa-with-SHA256
    Signature Value:
        30:45:02:21:00:87:31:ec:0f:67:b1:f2:1d:61:b0:a4:38:1e:
        2e:b8:f3:d8:2c:bc:94:f0:8c:43:78:03:19:af:8e:91:50:9a:
        79:02:20:71:38:13:c4:75:a5:42:7b:73:cb:11:78:2d:39:92:
        a7:29:bd:00:d8:8b:6a:10:b0:1a:c9:7a:d1:cf:f0:56:57
-----BEGIN CERTIFICATE-----
MIICMzCCAdkCFAO394cHnGk2hJ8O+ud+iPIMGFscMAoGCCqGSM49BAMCMIGbMQsw
CQYDVQQGEwJVUzELMAkGA1UECAwCQ0ExFDASBgNVBAcMC1NhbnRhIENsYXJhMR4w
HAYDVQQKDBVSZWFsIFRpbWUgSW5ub3ZhdGlvbnMxIzAhBgNVBAMMGlJUSSBFQ0RT
QTAxIChwMjU2KSBST09UIENBMSQwIgYJKoZIhvcNAQkBFhVlY2RzYTAxUm9vdENh
QHJ0aS5jb20wHhcNMjMwNzAxMDc1NTEyWhcNMjgwNjI5MDc1NTEyWjCBmzELMAkG
A1UEBhMCVVMxCzAJBgNVBAgMAkNBMRQwEgYDVQQHDAtTYW50YSBDbGFyYTEeMBwG
A1UECgwVUmVhbCBUaW1lIElubm92YXRpb25zMSMwIQYDVQQDDBpSVEkgRUNEU0Ew
MSAocDI1NikgUk9PVCBDQTEkMCIGCSqGSIb3DQEJARYVZWNkc2EwMVJvb3RDYUBy
dGkuY29tMFkwEwYHKoZIzj0CAQYIKoZIzj0DAQcDQgAE5g92bxa4YsXnKd/5nYSA
+agwre3bg8tIT3AknK/MH1po42u3LDQa/2Gt9aNsPABi+OhUHixoYew6pYsl1Xik
STAKBggqhkjOPQQDAgNIADBFAiEAhzHsD2ex8h1hsKQ4Hi6489gsvJTwjEN4Axmv
jpFQmnkCIHE4E8R1pUJ7c8sReC05kqcpvQDYi2oQsBrJetHP8FZX
-----END CERTIFICATE-----
