Certificate:
    Data:
        Version: 1 (0x0)
        Serial Number:
            01:1b:61:b0:b3:b6:f4:63:15:44:79:10:cd:9f:08:32:fd:43:d0:aa
        Signature Algorithm: ecdsa-with-SHA256
        Issuer: C = US, ST = CA, L = Santa Clara, O = Real Time Innovations, CN = RTI CA, emailAddress = secure@rti.com
        Validity
            Not Before: Jan 29 23:34:17 2021 GMT
            Not After : Jan 28 23:34:17 2026 GMT
        Subject: C = US, ST = CA, L = Santa Clara, O = Real Time Innovations, CN = RTI CA, emailAddress = secure@rti.com
        Subject Public Key Info:
            Public Key Algorithm: id-ecPublicKey
                Public-Key: (256 bit)
                pub:
                    04:f5:0c:7b:39:eb:cd:cc:12:a2:b9:19:07:9b:4c:
                    19:12:7a:79:65:b7:c4:b0:51:f2:f3:5a:b4:67:91:
                    4e:4f:25:91:d6:97:d8:8a:e6:24:5f:00:e8:26:15:
                    d6:b8:2d:91:cc:9a:a8:3c:55:ad:c2:37:b7:c3:5d:
                    db:1f:18:48:03
                ASN1 OID: prime256v1
                NIST CURVE: P-256
    Signature Algorithm: ecdsa-with-SHA256
         30:45:02:20:6f:66:19:d2:b8:b7:5c:ca:51:1b:03:f6:30:dc:
         ff:49:bc:70:31:6e:18:a6:d5:e7:2f:5c:0f:2e:5f:b4:5d:8a:
         02:21:00:a9:26:a4:e2:c7:7e:76:d1:0a:42:10:42:3f:d8:75:
         fa:91:ef:9f:00:a1:20:ee:d1:4a:7c:ef:fe:69:17:04:53
-----BEGIN CERTIFICATE-----
MIIB/TCCAaMCFAEbYbCztvRjFUR5EM2fCDL9Q9CqMAoGCCqGSM49BAMCMIGAMQsw
CQYDVQQGEwJVUzELMAkGA1UECAwCQ0ExFDASBgNVBAcMC1NhbnRhIENsYXJhMR4w
HAYDVQQKDBVSZWFsIFRpbWUgSW5ub3ZhdGlvbnMxDzANBgNVBAMMBlJUSSBDQTEd
MBsGCSqGSIb3DQEJARYOc2VjdXJlQHJ0aS5jb20wHhcNMjEwMTI5MjMzNDE3WhcN
MjYwMTI4MjMzNDE3WjCBgDELMAkGA1UEBhMCVVMxCzAJBgNVBAgMAkNBMRQwEgYD
VQQHDAtTYW50YSBDbGFyYTEeMBwGA1UECgwVUmVhbCBUaW1lIElubm92YXRpb25z
MQ8wDQYDVQQDDAZSVEkgQ0ExHTAbBgkqhkiG9w0BCQEWDnNlY3VyZUBydGkuY29t
MFkwEwYHKoZIzj0CAQYIKoZIzj0DAQcDQgAE9Qx7OevNzBKiuRkHm0wZEnp5ZbfE
sFHy81q0Z5FOTyWR1pfYiuYkXwDoJhXWuC2RzJqoPFWtwje3w13bHxhIAzAKBggq
hkjOPQQDAgNIADBFAiBvZhnSuLdcylEbA/Yw3P9JvHAxbhim1ecvXA8uX7RdigIh
AKkmpOLHfnbRCkIQQj/YdfqR758AoSDu0Up87/5pFwRT
-----END CERTIFICATE-----
