Certificate:
    Data:
        Version: 1 (0x0)
        Serial Number:
            86:74:16:2d:ad:85:7d:82
    Signature Algorithm: sha256WithRSAEncryption
        Issuer: C=US, ST=CA, L=Santa Clara, O=Real Time Innovations, CN=RTI CA/emailAddress=secure@rti.com
        Validity
            Not Before: Mar  1 06:14:49 2019 GMT
            Not After : Feb 28 06:14:49 2024 GMT
        Subject: C=US, ST=CA, L=Santa Clara, O=Real Time Innovations, CN=RTI CA/emailAddress=secure@rti.com
        Subject Public Key Info:
            Public Key Algorithm: rsaEncryption
                Public-Key: (2048 bit)
                Modulus:
                    00:d4:0f:97:0b:b5:c4:ed:37:a4:fb:ed:a8:17:04:
                    db:7b:06:d9:46:47:2e:17:44:23:87:ec:a4:a8:80:
                    af:00:a6:d4:dd:76:89:2c:9f:54:e0:f2:d8:a8:1d:
                    3e:d2:f9:7f:67:8a:35:5e:af:bd:9c:33:d1:5f:5b:
                    b8:e8:5f:99:08:e0:32:31:14:2f:35:d4:da:f6:b2:
                    00:48:99:5e:88:83:b8:57:29:52:b6:50:1a:31:f6:
                    8c:88:ec:42:30:9b:8b:2a:36:f9:c2:aa:58:44:8e:
                    6a:e5:2e:60:58:7c:7d:86:0f:6c:fb:dd:6f:d5:0a:
                    b2:ae:ff:48:0d:04:c0:f5:66:60:c7:b3:b0:73:6f:
                    d9:6c:14:5e:bf:54:5b:62:1c:0a:aa:de:99:81:31:
                    ca:81:57:9b:9b:2f:61:0e:13:a9:51:86:c9:39:92:
                    08:d1:a4:cb:d8:13:c3:63:4c:a1:9a:91:83:33:7f:
                    61:7a:92:47:84:fd:cc:46:45:ab:b8:1b:67:be:f2:
                    50:bd:5a:91:43:05:90:86:f7:6e:33:7d:67:00:a5:
                    78:ba:29:16:8c:a6:3d:1a:7a:e8:7e:84:9a:77:79:
                    c9:10:c2:60:3e:26:10:94:92:2e:6b:4e:8e:52:bf:
                    a0:1e:4e:fa:a0:8c:43:b8:f3:4a:d1:42:9f:ac:8e:
                    89:df
                Exponent: 65537 (0x10001)
    Signature Algorithm: sha256WithRSAEncryption
         0b:8b:07:fc:73:14:c0:c8:d4:2b:4a:9f:81:11:c1:c7:69:ae:
         b2:88:89:73:34:95:91:88:dd:f2:05:30:38:c3:84:77:73:74:
         c0:08:5d:4b:ce:5e:37:fa:2e:7e:83:a9:22:d8:38:5b:2a:b9:
         a9:ce:59:3d:0d:5a:ee:78:22:58:e9:5a:5a:d0:59:ec:7e:43:
         c1:79:84:ea:50:9d:e5:3a:1e:dc:db:90:be:85:53:10:06:a5:
         72:04:6b:90:70:a1:e0:bc:21:bd:3e:f8:e0:bb:73:91:a1:81:
         80:fe:8d:ac:11:67:79:19:e0:e7:81:27:3b:de:8f:6e:b4:03:
         4a:be:01:51:3f:4e:c7:4d:6a:e4:5f:d9:b7:2e:d0:b8:a4:64:
         90:65:f0:d8:7b:9b:e8:4f:d5:c0:aa:6a:03:6c:a6:24:d8:32:
         69:93:9c:77:da:4b:1e:3f:96:45:75:c8:7b:2b:14:32:ec:38:
         55:9b:14:d0:12:e9:b5:7a:d3:0b:5a:4b:17:f6:29:d3:69:72:
         cc:6d:47:2a:26:31:73:60:83:81:00:01:d0:df:14:67:9c:c3:
         f3:c6:63:e9:88:01:91:00:eb:33:14:b3:85:6c:01:e8:f7:a4:
         d6:fa:c3:7c:75:c9:74:75:96:fa:c2:b5:a1:25:07:7e:77:38:
         07:6a:13:22
-----BEGIN CERTIFICATE-----
MIIDfjCCAmYCCQCGdBYtrYV9gjANBgkqhkiG9w0BAQsFADCBgDELMAkGA1UEBhMC
VVMxCzAJBgNVBAgMAkNBMRQwEgYDVQQHDAtTYW50YSBDbGFyYTEeMBwGA1UECgwV
UmVhbCBUaW1lIElubm92YXRpb25zMQ8wDQYDVQQDDAZSVEkgQ0ExHTAbBgkqhkiG
9w0BCQEWDnNlY3VyZUBydGkuY29tMB4XDTE5MDMwMTA2MTQ0OVoXDTI0MDIyODA2
MTQ0OVowgYAxCzAJBgNVBAYTAlVTMQswCQYDVQQIDAJDQTEUMBIGA1UEBwwLU2Fu
dGEgQ2xhcmExHjAcBgNVBAoMFVJlYWwgVGltZSBJbm5vdmF0aW9uczEPMA0GA1UE
AwwGUlRJIENBMR0wGwYJKoZIhvcNAQkBFg5zZWN1cmVAcnRpLmNvbTCCASIwDQYJ
KoZIhvcNAQEBBQADggEPADCCAQoCggEBANQPlwu1xO03pPvtqBcE23sG2UZHLhdE
I4fspKiArwCm1N12iSyfVODy2KgdPtL5f2eKNV6vvZwz0V9buOhfmQjgMjEULzXU
2vayAEiZXoiDuFcpUrZQGjH2jIjsQjCbiyo2+cKqWESOauUuYFh8fYYPbPvdb9UK
sq7/SA0EwPVmYMezsHNv2WwUXr9UW2IcCqremYExyoFXm5svYQ4TqVGGyTmSCNGk
y9gTw2NMoZqRgzN/YXqSR4T9zEZFq7gbZ77yUL1akUMFkIb3bjN9ZwCleLopFoym
PRp66H6Emnd5yRDCYD4mEJSSLmtOjlK/oB5O+qCMQ7jzStFCn6yOid8CAwEAATAN
BgkqhkiG9w0BAQsFAAOCAQEAC4sH/HMUwMjUK0qfgRHBx2musoiJczSVkYjd8gUw
OMOEd3N0wAhdS85eN/oufoOpItg4Wyq5qc5ZPQ1a7ngiWOlaWtBZ7H5DwXmE6lCd
5Toe3NuQvoVTEAalcgRrkHCh4LwhvT744LtzkaGBgP6NrBFneRng54EnO96PbrQD
Sr4BUT9Ox01q5F/Zty7QuKRkkGXw2Hub6E/VwKpqA2ymJNgyaZOcd9pLHj+WRXXI
eysUMuw4VZsU0BLptXrTC1pLF/Yp02lyzG1HKiYxc2CDgQAB0N8UZ5zD88Zj6YgB
kQDrMxSzhWwB6Pek1vrDfHXJdHWW+sK1oSUHfnc4B2oTIg==
-----END CERTIFICATE-----
