Certificate:
    Data:
        Version: 1 (0x0)
        Serial Number:
            dd:17:ca:70:c0:61:98:31
    Signature Algorithm: ecdsa-with-SHA256
        Issuer: C=US, ST=CA, L=Santa Clara, O=Real Time Innovations, CN=Alternative RTI CA No. 2/emailAddress=secure@rti.com
        Validity
            Not Before: Mar  1 06:14:51 2019 GMT
            Not After : Feb 28 06:14:51 2024 GMT
        Subject: C=US, ST=CA, O=Real Time Innovations, CN=dtlsexample2Alt2/emailAddress=you@rti.com
        Subject Public Key Info:
            Public Key Algorithm: rsaEncryption
                Public-Key: (2048 bit)
                Modulus:
                    00:bd:fb:7d:c0:e9:57:48:af:44:93:7f:eb:13:7d:
                    3f:cf:b8:9f:ef:64:ec:3c:86:46:dc:7a:1e:3a:55:
                    62:7b:60:78:0d:c0:34:d6:f0:b2:7f:ad:09:0a:66:
                    8a:fc:85:00:7d:2d:34:49:ef:24:56:94:c3:df:65:
                    84:fe:8b:e9:fe:f6:48:71:1f:4c:66:3d:06:1d:30:
                    ef:45:23:ad:b4:00:ce:83:a8:d1:8c:ee:30:0f:91:
                    e3:6c:81:02:96:18:4a:f5:82:87:7e:ac:05:67:df:
                    53:60:9e:cc:69:e4:42:46:64:0e:de:74:4d:11:fa:
                    f7:48:9f:3f:76:75:9f:20:10:3a:2c:d0:4e:f9:ff:
                    76:76:65:70:95:e6:4a:eb:7c:6e:40:42:4e:37:39:
                    f6:a2:86:a7:42:f8:6e:d2:55:22:c4:2b:8a:ea:43:
                    ef:ee:cd:7b:98:4d:4a:1c:03:05:f5:5a:c5:9c:40:
                    3f:46:84:e2:32:e9:9b:d9:0f:ee:fe:1c:cd:c0:8e:
                    b1:83:72:e2:92:1a:8e:af:5c:03:8a:68:c4:3f:9f:
                    da:70:e6:a3:77:db:03:11:9f:73:de:0d:cf:19:f6:
                    7b:ce:8c:8c:da:ea:57:b0:cb:cb:35:d8:09:97:86:
                    27:de:fd:20:e7:33:35:93:2a:10:75:7e:a0:c4:bf:
                    1d:79
                Exponent: 65537 (0x10001)
    Signature Algorithm: ecdsa-with-SHA256
         30:45:02:20:6a:d7:51:f0:b6:6a:01:38:26:75:05:6b:8b:98:
         c9:9b:0c:20:b4:4b:fb:c2:f8:40:cf:bb:40:a2:51:6e:a3:20:
         02:21:00:90:05:88:1e:5d:ac:8f:89:5c:47:69:ed:bc:60:f9:
         5d:c0:21:98:7e:4d:56:73:df:e1:39:d3:cd:5a:a6:e4:bd
-----BEGIN CERTIFICATE-----
MIICvzCCAmUCCQDdF8pwwGGYMTAKBggqhkjOPQQDAjCBkjELMAkGA1UEBhMCVVMx
CzAJBgNVBAgMAkNBMRQwEgYDVQQHDAtTYW50YSBDbGFyYTEeMBwGA1UECgwVUmVh
bCBUaW1lIElubm92YXRpb25zMSEwHwYDVQQDDBhBbHRlcm5hdGl2ZSBSVEkgQ0Eg
Tm8uIDIxHTAbBgkqhkiG9w0BCQEWDnNlY3VyZUBydGkuY29tMB4XDTE5MDMwMTA2
MTQ1MVoXDTI0MDIyODA2MTQ1MVowcTELMAkGA1UEBhMCVVMxCzAJBgNVBAgMAkNB
MR4wHAYDVQQKDBVSZWFsIFRpbWUgSW5ub3ZhdGlvbnMxGTAXBgNVBAMMEGR0bHNl
eGFtcGxlMkFsdDIxGjAYBgkqhkiG9w0BCQEWC3lvdUBydGkuY29tMIIBIjANBgkq
hkiG9w0BAQEFAAOCAQ8AMIIBCgKCAQEAvft9wOlXSK9Ek3/rE30/z7if72TsPIZG
3HoeOlVie2B4DcA01vCyf60JCmaK/IUAfS00Se8kVpTD32WE/ovp/vZIcR9MZj0G
HTDvRSOttADOg6jRjO4wD5HjbIEClhhK9YKHfqwFZ99TYJ7MaeRCRmQO3nRNEfr3
SJ8/dnWfIBA6LNBO+f92dmVwleZK63xuQEJONzn2ooanQvhu0lUixCuK6kPv7s17
mE1KHAMF9VrFnEA/RoTiMumb2Q/u/hzNwI6xg3LikhqOr1wDimjEP5/acOajd9sD
EZ9z3g3PGfZ7zoyM2upXsMvLNdgJl4Yn3v0g5zM1kyoQdX6gxL8deQIDAQABMAoG
CCqGSM49BAMCA0gAMEUCIGrXUfC2agE4JnUFa4uYyZsMILRL+8L4QM+7QKJRbqMg
AiEAkAWIHl2sj4lcR2ntvGD5XcAhmH5NVnPf4TnTzVqm5L0=
-----END CERTIFICATE-----
