Certificate:
    Data:
        Version: 1 (0x0)
        Serial Number:
            98:21:b1:d2:72:de:39:4c
    Signature Algorithm: dsa_with_SHA256
        Issuer: C=US, ST=CA, L=Santa Clara, O=Real Time Innovations, CN=RTI CA/emailAddress=secure@rti.com
        Validity
            Not Before: Mar  1 06:14:52 2019 GMT
            Not After : Feb 28 06:14:52 2024 GMT
        Subject: C=US, ST=CA, O=Real Time Innovations, CN=dtlsexampledsa/emailAddress=medsa@rti.com
        Subject Public Key Info:
            Public Key Algorithm: dsaEncryption
                pub: 
                    00:85:2d:fa:af:80:69:99:4d:59:03:2f:70:5e:1d:
                    41:b5:81:a3:fb:1a:f6:46:22:14:80:38:ff:18:72:
                    78:d6:ef:cf:2f:39:b1:31:1a:ad:30:3b:3a:ff:cc:
                    89:62:2d:74:52:11:a9:32:7e:f8:7d:d9:45:fd:9b:
                    d7:e1:56:50:ed:7b:c6:00:46:a7:ba:f3:1f:f9:f3:
                    11:f1:1b:12:e4:b5:2f:a5:ae:f8:30:71:54:51:5b:
                    6c:da:17:ed:29:b5:9a:40:c9:0e:e8:af:49:33:fa:
                    68:87:5b:4d:06:3e:ee:69:06:c0:6a:c7:89:ef:93:
                    1f:4b:de:e8:34:a6:12:94:9c:bc:c4:62:c2:e9:de:
                    ef:01:95:ea:9a:0f:5a:bf:c4:cd:1f:a1:5d:ac:b8:
                    cc:fa:2e:99:31:c5:bb:1c:29:01:4d:70:ec:c6:44:
                    28:4f:ac:59:85:12:eb:98:43:03:eb:7c:a7:c8:7d:
                    2a:3b:c7:8d:28:73:b3:a8:f7:52:07:2d:4e:51:47:
                    81:e0:d1:7d:2d:36:9d:1c:8e:6a:4b:ab:63:f6:ee:
                    b2:6e:0f:ec:5d:07:c1:c2:1a:2c:2c:95:88:2a:a1:
                    2e:b3:22:62:a8:93:45:43:ed:9f:4d:8e:91:b3:32:
                    cf:fd:fe:aa:98:ba:47:94:83:e4:e4:c2:51:ca:d7:
                    ce:21
                P:   
                    00:9b:72:2f:b2:1b:dd:55:69:31:2a:4b:3c:4b:0e:
                    7a:56:5e:39:7c:7b:24:92:90:f5:54:33:83:33:8d:
                    38:98:e8:15:31:82:8a:b6:7a:b9:1a:6e:c4:fb:20:
                    87:84:e8:29:9c:c0:17:8c:2b:a6:fb:90:89:25:8a:
                    09:1f:e0:41:d7:19:3b:0e:e5:88:8a:66:4c:ad:13:
                    17:e3:f0:90:73:34:f7:8e:92:a6:8d:81:ef:10:54:
                    96:97:f7:21:de:2e:26:04:39:de:95:9e:b2:87:2d:
                    3e:ee:8a:ee:74:b6:9e:0f:3c:88:65:51:10:c5:23:
                    b9:ed:f2:60:4a:c8:7d:ac:5f:4f:25:50:c9:16:f7:
                    a1:f7:35:36:ca:ae:4d:e3:5c:62:c9:4b:f6:6c:72:
                    85:a6:81:4e:99:a6:9c:af:d8:37:42:fb:21:d5:8d:
                    85:fd:7b:8b:d7:e3:c6:25:cc:a9:fc:31:ea:72:95:
                    4f:a2:c9:07:b0:94:bb:15:cf:bf:4d:9a:02:ef:e8:
                    c7:93:fc:4b:d7:b5:d1:3f:3f:e8:67:d5:2c:cd:29:
                    b4:07:45:9a:c4:b5:2e:a1:8f:5b:cf:ee:eb:40:00:
                    8c:20:8e:ff:6e:92:e6:eb:49:64:f3:fa:3a:f7:72:
                    f0:4a:1b:cc:0a:21:4f:71:cd:5b:12:b9:44:fc:af:
                    64:71
                Q:   
                    00:84:32:f0:24:0e:89:7b:c4:66:c1:95:82:bc:7b:
                    6e:20:c4:a2:a8:ce:d2:92:04:40:6a:2a:a1:6d:4f:
                    de:e5:55
                G:   
                    5c:33:c7:14:8d:d9:76:91:32:8c:5f:2a:67:68:23:
                    03:71:75:6b:44:e8:33:cb:9e:c9:ca:3b:d7:82:31:
                    31:d1:79:41:ba:7b:50:5f:b7:66:f5:f2:c3:0e:3d:
                    41:d0:48:fd:59:d2:32:9c:ee:ff:30:b9:29:b0:07:
                    01:c5:70:46:98:32:b0:be:1f:a2:6e:99:01:35:a9:
                    dc:b1:2c:f6:db:35:28:6c:6d:74:9e:b0:f9:43:81:
                    2c:22:12:51:e3:61:8a:13:65:0c:33:04:f2:1f:b9:
                    ac:f1:a5:85:1d:e2:12:ae:a9:e9:24:cd:b5:87:f0:
                    ba:08:b2:72:f5:5b:0a:36:ae:6e:5d:60:f8:0b:4b:
                    78:03:93:bf:a7:0b:88:2b:21:a7:9d:25:63:6c:3d:
                    24:b3:c5:e7:b3:91:08:ea:83:b9:76:c9:27:97:ed:
                    d2:bf:9c:5a:1f:c1:80:d9:37:30:bc:da:25:aa:9e:
                    78:12:19:89:49:6a:67:10:5c:bb:20:76:24:82:35:
                    7c:fc:7b:a8:00:63:27:e2:1a:94:41:0e:4e:ba:b7:
                    a0:2a:76:5b:8c:98:65:13:9d:06:db:34:70:a6:61:
                    0d:68:b0:8b:bb:cd:73:6d:7d:41:55:a8:15:46:18:
                    1d:87:e7:fa:3d:ef:52:ec:44:c0:00:b3:1a:01:68:
                    27
    Signature Algorithm: dsa_with_SHA256
         r:   
             17:17:c7:8a:a1:fa:fb:cc:7d:35:f2:18:99:09:a3:
             28:68:cc:f6:69:3e:98:dd:35:a7:5f:9b:73:ac:49:
             e0:34
         s:   
             00:8e:1b:27:75:29:a1:90:78:29:ac:04:6e:07:7a:
             b2:37:58:9c:96:68:2e:f2:23:7b:7b:8e:56:ce:06:
             d0:55:8a
-----BEGIN CERTIFICATE-----
MIIE1DCCBHkCCQCYIbHSct45TDALBglghkgBZQMEAwIwgYAxCzAJBgNVBAYTAlVT
MQswCQYDVQQIDAJDQTEUMBIGA1UEBwwLU2FudGEgQ2xhcmExHjAcBgNVBAoMFVJl
YWwgVGltZSBJbm5vdmF0aW9uczEPMA0GA1UEAwwGUlRJIENBMR0wGwYJKoZIhvcN
AQkBFg5zZWN1cmVAcnRpLmNvbTAeFw0xOTAzMDEwNjE0NTJaFw0yNDAyMjgwNjE0
NTJaMHExCzAJBgNVBAYTAlVTMQswCQYDVQQIDAJDQTEeMBwGA1UECgwVUmVhbCBU
aW1lIElubm92YXRpb25zMRcwFQYDVQQDDA5kdGxzZXhhbXBsZWRzYTEcMBoGCSqG
SIb3DQEJARYNbWVkc2FAcnRpLmNvbTCCA0cwggI5BgcqhkjOOAQBMIICLAKCAQEA
m3IvshvdVWkxKks8Sw56Vl45fHskkpD1VDODM404mOgVMYKKtnq5Gm7E+yCHhOgp
nMAXjCum+5CJJYoJH+BB1xk7DuWIimZMrRMX4/CQczT3jpKmjYHvEFSWl/ch3i4m
BDnelZ6yhy0+7orudLaeDzyIZVEQxSO57fJgSsh9rF9PJVDJFveh9zU2yq5N41xi
yUv2bHKFpoFOmaacr9g3Qvsh1Y2F/XuL1+PGJcyp/DHqcpVPoskHsJS7Fc+/TZoC
7+jHk/xL17XRPz/oZ9UszSm0B0WaxLUuoY9bz+7rQACMII7/bpLm60lk8/o693Lw
ShvMCiFPcc1bErlE/K9kcQIhAIQy8CQOiXvEZsGVgrx7biDEoqjO0pIEQGoqoW1P
3uVVAoIBAFwzxxSN2XaRMoxfKmdoIwNxdWtE6DPLnsnKO9eCMTHReUG6e1Bft2b1
8sMOPUHQSP1Z0jKc7v8wuSmwBwHFcEaYMrC+H6JumQE1qdyxLPbbNShsbXSesPlD
gSwiElHjYYoTZQwzBPIfuazxpYUd4hKuqekkzbWH8LoIsnL1Wwo2rm5dYPgLS3gD
k7+nC4grIaedJWNsPSSzxeezkQjqg7l2ySeX7dK/nFofwYDZNzC82iWqnngSGYlJ
amcQXLsgdiSCNXz8e6gAYyfiGpRBDk66t6AqdluMmGUTnQbbNHCmYQ1osIu7zXNt
fUFVqBVGGB2H5/o971LsRMAAsxoBaCcDggEGAAKCAQEAhS36r4BpmU1ZAy9wXh1B
tYGj+xr2RiIUgDj/GHJ41u/PLzmxMRqtMDs6/8yJYi10UhGpMn74fdlF/ZvX4VZQ
7XvGAEanuvMf+fMR8RsS5LUvpa74MHFUUVts2hftKbWaQMkO6K9JM/poh1tNBj7u
aQbAaseJ75MfS97oNKYSlJy8xGLC6d7vAZXqmg9av8TNH6FdrLjM+i6ZMcW7HCkB
TXDsxkQoT6xZhRLrmEMD63ynyH0qO8eNKHOzqPdSBy1OUUeB4NF9LTadHI5qS6tj
9u6ybg/sXQfBwhosLJWIKqEusyJiqJNFQ+2fTY6RszLP/f6qmLpHlIPk5MJRytfO
ITALBglghkgBZQMEAwIDSAAwRQIgFxfHiqH6+8x9NfIYmQmjKGjM9mk+mN01p1+b
c6xJ4DQCIQCOGyd1KaGQeCmsBG4HerI3WJyWaC7yI3t7jlbOBtBVig==
-----END CERTIFICATE-----
