Certificate:
    Data:
        Version: 1 (0x0)
        Serial Number:
            dd:17:ca:70:c0:61:98:2e
    Signature Algorithm: sha256WithRSAEncryption
        Issuer: C=US, ST=CA, L=Santa Clara, O=Real Time Innovations, CN=RTI CA/emailAddress=secure@rti.com
        Validity
            Not Before: Mar  1 06:14:50 2019 GMT
            Not After : Feb 28 06:14:50 2024 GMT
        Subject: C=US, ST=CA, O=Real Time Innovations, CN=dtlsexample/emailAddress=me@rti.com
        Subject Public Key Info:
            Public Key Algorithm: rsaEncryption
                Public-Key: (2048 bit)
                Modulus:
                    00:da:7b:1f:61:6b:ec:14:6f:c0:f9:d0:fb:90:5f:
                    39:5a:d3:76:6e:e4:29:9e:da:8a:db:05:b3:c1:af:
                    ff:8c:67:70:2c:14:70:ae:0a:e6:c9:a6:b5:99:7d:
                    71:de:d1:3f:ee:7b:87:2e:59:4f:d9:e9:46:dd:c0:
                    6a:4f:f1:c9:f3:90:4b:bd:40:7f:30:c2:ab:04:c9:
                    0b:34:6d:fa:99:4f:84:be:2c:3e:10:80:59:60:b0:
                    7a:e8:69:cf:f9:eb:f1:b7:88:6f:fc:5f:06:31:a2:
                    a9:f8:7b:f1:1a:7f:80:02:c1:0a:72:9a:3b:c9:d5:
                    94:20:a3:c6:b2:6e:67:90:a8:bf:1d:c7:a8:21:7e:
                    26:5f:3d:25:97:02:2c:44:93:25:52:fe:0a:3a:21:
                    78:44:e4:ae:78:6a:ce:c9:be:be:51:64:54:d9:ca:
                    9f:2c:12:48:4f:e6:f6:73:1c:41:40:c9:eb:25:91:
                    eb:cd:39:d1:39:2d:76:5a:ac:ce:58:01:77:a6:5e:
                    af:fa:a4:ad:0c:31:f7:0f:21:39:c0:c6:5c:df:8f:
                    e0:b1:a6:10:86:09:7f:d3:b1:13:22:64:4f:4d:ea:
                    18:73:38:ee:15:cc:d4:6c:a5:f5:ab:6e:54:72:40:
                    c2:4d:26:0e:a6:1e:4e:66:f3:df:ea:f3:3d:de:f9:
                    16:e7
                Exponent: 65537 (0x10001)
    Signature Algorithm: sha256WithRSAEncryption
         36:e9:00:11:5a:d1:61:9f:f4:0e:70:8e:4e:86:82:76:66:31:
         07:3b:29:26:94:e7:e3:76:c6:ef:60:06:b7:4d:39:b3:97:aa:
         ff:f7:33:b9:47:ac:e6:49:60:ad:37:6a:73:dc:da:f1:b5:aa:
         83:35:fb:08:c2:11:e8:d5:88:c4:5b:8c:54:32:27:49:81:4c:
         dc:df:d9:04:d5:30:42:97:c6:85:ac:f5:cc:f5:6c:7c:c4:ae:
         37:86:5b:22:4c:e7:9b:67:88:77:f1:3d:9b:46:b0:2d:ee:37:
         13:e1:15:f2:b1:22:62:64:56:c9:7e:be:96:b5:11:81:c9:14:
         9b:99:13:8e:31:4e:9b:d6:2c:60:96:c4:20:35:9d:56:54:6f:
         d7:78:9d:78:04:64:06:e8:22:85:84:04:0b:ff:4d:86:14:33:
         bf:65:15:12:2e:a0:8c:a2:95:16:ea:d6:a4:af:74:9f:21:3b:
         47:2c:69:5f:fe:4f:ef:87:68:d0:74:e0:8c:4b:04:1c:ad:a5:
         aa:0e:30:78:0a:7f:6f:1a:8f:97:3b:8f:2d:ab:48:2f:b9:e9:
         1b:29:f9:f2:cb:bd:f0:f8:65:c3:39:3b:0e:70:24:59:be:70:
         c2:62:c7:ae:ba:7d:23:83:e3:76:ec:1e:e5:3a:3d:c9:b2:50:
         94:79:47:6e
-----BEGIN CERTIFICATE-----
MIIDaDCCAlACCQDdF8pwwGGYLjANBgkqhkiG9w0BAQsFADCBgDELMAkGA1UEBhMC
VVMxCzAJBgNVBAgMAkNBMRQwEgYDVQQHDAtTYW50YSBDbGFyYTEeMBwGA1UECgwV
UmVhbCBUaW1lIElubm92YXRpb25zMQ8wDQYDVQQDDAZSVEkgQ0ExHTAbBgkqhkiG
9w0BCQEWDnNlY3VyZUBydGkuY29tMB4XDTE5MDMwMTA2MTQ1MFoXDTI0MDIyODA2
MTQ1MFowazELMAkGA1UEBhMCVVMxCzAJBgNVBAgMAkNBMR4wHAYDVQQKDBVSZWFs
IFRpbWUgSW5ub3ZhdGlvbnMxFDASBgNVBAMMC2R0bHNleGFtcGxlMRkwFwYJKoZI
hvcNAQkBFgptZUBydGkuY29tMIIBIjANBgkqhkiG9w0BAQEFAAOCAQ8AMIIBCgKC
AQEA2nsfYWvsFG/A+dD7kF85WtN2buQpntqK2wWzwa//jGdwLBRwrgrmyaa1mX1x
3tE/7nuHLllP2elG3cBqT/HJ85BLvUB/MMKrBMkLNG36mU+Eviw+EIBZYLB66GnP
+evxt4hv/F8GMaKp+HvxGn+AAsEKcpo7ydWUIKPGsm5nkKi/HceoIX4mXz0llwIs
RJMlUv4KOiF4ROSueGrOyb6+UWRU2cqfLBJIT+b2cxxBQMnrJZHrzTnROS12WqzO
WAF3pl6v+qStDDH3DyE5wMZc34/gsaYQhgl/07ETImRPTeoYczjuFczUbKX1q25U
ckDCTSYOph5OZvPf6vM93vkW5wIDAQABMA0GCSqGSIb3DQEBCwUAA4IBAQA26QAR
WtFhn/QOcI5OhoJ2ZjEHOykmlOfjdsbvYAa3TTmzl6r/9zO5R6zmSWCtN2pz3Nrx
taqDNfsIwhHo1YjEW4xUMidJgUzc39kE1TBCl8aFrPXM9Wx8xK43hlsiTOebZ4h3
8T2bRrAt7jcT4RXysSJiZFbJfr6WtRGByRSbmROOMU6b1ixglsQgNZ1WVG/XeJ14
BGQG6CKFhAQL/02GFDO/ZRUSLqCMopUW6takr3SfITtHLGlf/k/vh2jQdOCMSwQc
raWqDjB4Cn9vGo+XO48tq0gvuekbKfnyy73w+GXDOTsOcCRZvnDCYseuun0jg+N2
7B7lOj3JslCUeUdu
-----END CERTIFICATE-----
