Certificate:
    Data:
        Version: 1 (0x0)
        Serial Number:
            dd:17:ca:70:c0:61:98:30
    Signature Algorithm: ecdsa-with-SHA256
        Issuer: C=US, ST=CA, L=Santa Clara, O=Real Time Innovations, CN=Alternative RTI CA No. 1/emailAddress=secure@rti.com
        Validity
            Not Before: Mar  1 06:14:51 2019 GMT
            Not After : Feb 28 06:14:51 2024 GMT
        Subject: C=US, ST=CA, O=Real Time Innovations, CN=dtlsexampleAlt1/emailAddress=me@rti.com
        Subject Public Key Info:
            Public Key Algorithm: rsaEncryption
                Public-Key: (2048 bit)
                Modulus:
                    00:c3:82:3c:1a:b1:a0:df:17:ab:5e:49:fd:98:0e:
                    a9:fc:12:de:1b:ab:28:7f:3e:1d:cd:79:c1:71:22:
                    a5:09:70:9b:53:99:2c:57:92:93:ad:0e:0c:2b:ae:
                    db:77:af:89:1f:44:ee:5f:de:4d:c6:ed:51:9b:cb:
                    c7:77:aa:46:24:30:ec:88:17:32:d0:e2:c6:1d:bd:
                    09:38:2d:ee:4e:a4:f5:e8:c2:4d:77:97:37:1d:ed:
                    4a:d3:0f:b5:e0:84:5d:26:c8:24:ed:16:ae:d5:f3:
                    75:36:ea:2d:ce:45:0c:fe:3e:b6:36:0f:55:4b:f2:
                    45:17:1c:8b:78:15:6b:99:f6:e6:db:2d:45:67:9e:
                    3c:96:71:1a:c8:77:3c:b9:3b:32:8c:a6:2b:c7:bc:
                    e1:47:3a:ad:db:86:d3:47:3b:5c:9b:32:9b:7b:f6:
                    63:a3:4b:91:e8:37:bf:29:d6:f7:ed:34:1d:8f:c6:
                    c9:d0:1b:66:06:45:62:3e:d5:e5:b6:55:20:db:53:
                    b7:8e:41:1d:82:bd:cf:5d:11:30:8b:fa:a3:42:3c:
                    d0:aa:c9:63:96:91:e6:d7:cb:74:d4:df:ee:72:9a:
                    64:93:e9:32:26:fe:0a:ca:03:90:cd:52:64:40:91:
                    b5:b6:50:90:00:4f:8d:6e:5f:d2:46:ae:41:1f:ce:
                    5c:9b
                Exponent: 65537 (0x10001)
    Signature Algorithm: ecdsa-with-SHA256
         30:46:02:21:00:e8:15:b7:bf:f7:42:d3:e4:dc:84:d7:07:86:
         b7:d7:85:62:45:07:aa:8a:55:97:db:db:e5:e5:8b:58:19:5d:
         e5:02:21:00:e1:cf:38:48:61:f9:2b:55:75:fb:ca:78:20:8a:
         49:7e:42:29:04:10:f9:cd:5e:27:b5:09:71:a2:2e:14:57:48
-----BEGIN CERTIFICATE-----
MIICvjCCAmMCCQDdF8pwwGGYMDAKBggqhkjOPQQDAjCBkjELMAkGA1UEBhMCVVMx
CzAJBgNVBAgMAkNBMRQwEgYDVQQHDAtTYW50YSBDbGFyYTEeMBwGA1UECgwVUmVh
bCBUaW1lIElubm92YXRpb25zMSEwHwYDVQQDDBhBbHRlcm5hdGl2ZSBSVEkgQ0Eg
Tm8uIDExHTAbBgkqhkiG9w0BCQEWDnNlY3VyZUBydGkuY29tMB4XDTE5MDMwMTA2
MTQ1MVoXDTI0MDIyODA2MTQ1MVowbzELMAkGA1UEBhMCVVMxCzAJBgNVBAgMAkNB
MR4wHAYDVQQKDBVSZWFsIFRpbWUgSW5ub3ZhdGlvbnMxGDAWBgNVBAMMD2R0bHNl
eGFtcGxlQWx0MTEZMBcGCSqGSIb3DQEJARYKbWVAcnRpLmNvbTCCASIwDQYJKoZI
hvcNAQEBBQADggEPADCCAQoCggEBAMOCPBqxoN8Xq15J/ZgOqfwS3hurKH8+Hc15
wXEipQlwm1OZLFeSk60ODCuu23eviR9E7l/eTcbtUZvLx3eqRiQw7IgXMtDixh29
CTgt7k6k9ejCTXeXNx3tStMPteCEXSbIJO0WrtXzdTbqLc5FDP4+tjYPVUvyRRcc
i3gVa5n25tstRWeePJZxGsh3PLk7MoymK8e84Uc6rduG00c7XJsym3v2Y6NLkeg3
vynW9+00HY/GydAbZgZFYj7V5bZVINtTt45BHYK9z10RMIv6o0I80KrJY5aR5tfL
dNTf7nKaZJPpMib+CsoDkM1SZECRtbZQkABPjW5f0kauQR/OXJsCAwEAATAKBggq
hkjOPQQDAgNJADBGAiEA6BW3v/dC0+TchNcHhrfXhWJFB6qKVZfb2+Xli1gZXeUC
IQDhzzhIYfkrVXX7ynggikl+QikEEPnNXie1CXGiLhRXSA==
-----END CERTIFICATE-----
