Certificate:
    Data:
        Version: 1 (0x0)
        Serial Number:
            98:21:b1:d2:72:de:39:4e
    Signature Algorithm: dsa_with_SHA256
        Issuer: C=US, ST=CA, L=Santa Clara, O=Real Time Innovations, CN=RTI CA/emailAddress=secure@rti.com
        Validity
            Not Before: Mar  1 06:14:53 2019 GMT
            Not After : Feb 28 06:14:53 2024 GMT
        Subject: C=US, ST=CA, O=Real Time Innovations, CN=dtlsexample3dsa/emailAddress=youdsa@rti.com
        Subject Public Key Info:
            Public Key Algorithm: dsaEncryption
                pub: 
                    21:d3:be:5c:02:29:7a:45:ee:55:aa:d1:f1:58:ad:
                    cb:4b:6c:7f:57:f4:56:9d:1d:8f:db:2b:ac:2a:9e:
                    0c:8f:1e:f7:75:4a:c1:1c:04:b2:ec:63:67:96:89:
                    69:9d:9c:eb:ba:2f:8c:72:9b:86:46:d7:83:ef:e3:
                    8a:ec:2c:fc:84:07:39:70:7c:f3:bb:f1:97:b1:74:
                    90:55:21:82:ae:22:2f:01:12:d7:0d:e8:8e:a2:35:
                    b1:d2:37:85:56:ca:da:81:f2:8d:73:87:2e:a1:fb:
                    ac:9b:56:f0:1e:0c:3e:9e:a8:be:b1:a9:70:1a:68:
                    cc:61:29:fe:da:9b:c7:60:48:7b:20:87:13:42:16:
                    13:5d:c0:04:80:fe:29:20:01:4a:c7:b7:13:5d:0c:
                    19:95:2d:1f:4c:9f:40:bf:b0:61:35:ef:f9:2d:ee:
                    c5:95:5b:97:42:53:ca:43:30:ee:18:c9:bc:2c:e0:
                    16:1f:e8:cc:23:51:7a:3f:11:48:a5:99:48:09:57:
                    2e:47:c7:4a:23:bc:97:bd:19:e7:cb:e5:c9:38:ec:
                    a3:5e:1d:19:f0:84:b5:bf:eb:4e:00:2e:21:d5:f8:
                    09:b0:20:14:91:02:3c:45:d8:ea:3c:3c:24:05:ed:
                    75:1a:81:5d:2e:a8:54:b0:bb:24:00:05:42:f0:e5:
                    7a
                P:   
                    00:9d:b4:c3:4b:14:b7:99:3e:e9:41:ef:d0:90:cc:
                    ec:e3:f5:77:2b:f7:a3:4b:17:1f:5c:2d:a6:f2:38:
                    92:a4:ed:02:9f:da:d1:b8:f1:d7:88:dc:ac:5b:eb:
                    76:49:6f:0f:33:a4:9c:39:8a:e7:81:0e:b4:11:cf:
                    24:72:4a:f0:89:c3:14:74:43:15:de:ac:4b:c1:fe:
                    1a:bf:14:e5:b0:3f:46:f8:d5:a9:a6:ea:aa:86:c0:
                    db:14:cd:1c:46:e8:c0:42:18:a7:f3:42:bc:79:dd:
                    fe:b7:d4:e5:cf:f6:77:c5:13:10:ba:5c:11:36:2b:
                    6a:6b:34:f1:e9:b4:de:72:6d:ec:e2:47:9e:2e:4b:
                    59:f3:eb:9b:c2:fd:c5:7d:a1:fa:a5:9b:fe:77:5e:
                    31:57:23:f4:9b:cf:fa:76:3e:b4:c6:b3:37:1a:c7:
                    01:cd:82:ef:9d:1d:ff:30:51:49:96:19:f8:ed:f3:
                    e8:56:7d:0e:10:7f:01:0b:98:56:aa:ee:3d:f7:57:
                    ca:aa:c1:9c:97:05:71:39:07:88:7e:57:5e:42:ea:
                    b8:a0:4a:e8:4d:68:c4:e1:ba:be:96:12:0d:06:ae:
                    5f:b2:2a:11:f5:34:22:33:4f:33:09:f5:79:e9:29:
                    4e:24:15:ed:47:ee:6e:05:ce:9e:14:f9:a0:7d:66:
                    80:45
                Q:   
                    00:8f:56:39:88:9e:cd:c8:2d:bf:c2:2c:4d:c4:87:
                    ca:a1:75:39:79:03:84:db:24:b4:6a:79:28:9e:25:
                    5d:d6:49
                G:   
                    00:8d:95:4d:ac:8b:56:4c:c0:c1:c0:9d:98:39:10:
                    d0:2a:51:8b:89:2a:6f:96:cd:e8:94:79:74:3b:da:
                    70:6f:58:3c:40:25:c9:99:18:7b:27:b6:bd:a9:78:
                    9b:cc:77:74:0b:41:01:b6:39:61:33:2a:1a:1d:dd:
                    7c:b1:ea:1a:d2:91:07:7d:0f:bb:72:a3:49:76:86:
                    d8:3f:a7:d8:dc:b6:13:e4:d7:3c:a6:6c:15:bf:f9:
                    7f:00:53:5c:a0:3e:2f:ae:04:b6:70:23:dc:90:05:
                    dc:45:72:a8:7d:b4:41:69:2d:e2:53:5e:86:1d:e3:
                    d4:9a:d3:c5:d6:cb:65:63:e7:45:91:7c:a6:70:2f:
                    c9:b8:41:0f:5c:62:be:a3:8a:c0:0f:cd:3e:96:f0:
                    e5:c4:65:3b:dd:d8:20:fe:99:24:71:67:b3:c9:e0:
                    54:4e:f3:4d:fc:9f:fb:57:da:c0:72:8f:07:52:67:
                    ae:41:fb:73:6f:1f:8b:48:0b:5d:31:fa:e8:82:9d:
                    e4:4b:a3:44:2e:19:0d:d7:ef:a9:9c:d3:67:9b:d7:
                    3a:a8:6e:93:72:d6:c7:29:ec:86:01:20:5a:82:bd:
                    fd:ba:e2:86:18:e3:4d:2b:6d:b3:28:1c:6f:13:a6:
                    5d:ee:80:38:e6:73:65:e9:60:23:41:6b:5e:5b:86:
                    00:8e
    Signature Algorithm: dsa_with_SHA256
         r:   
             11:e9:2b:b0:3c:e2:54:5f:ae:df:04:a5:00:b2:0c:
             14:47:43:04:53:30:5a:a2:52:4f:74:f9:de:cd:7f:
             c3:3f
         s:   
             1a:dc:bd:20:6e:ac:ff:d3:8e:8a:52:f4:7c:0c:a3:
             b5:9e:6b:4c:76:63:2c:d1:67:6d:15:d1:04:d3:71:
             38:8e
-----BEGIN CERTIFICATE-----
MIIE1TCCBHsCCQCYIbHSct45TjALBglghkgBZQMEAwIwgYAxCzAJBgNVBAYTAlVT
MQswCQYDVQQIDAJDQTEUMBIGA1UEBwwLU2FudGEgQ2xhcmExHjAcBgNVBAoMFVJl
YWwgVGltZSBJbm5vdmF0aW9uczEPMA0GA1UEAwwGUlRJIENBMR0wGwYJKoZIhvcN
AQkBFg5zZWN1cmVAcnRpLmNvbTAeFw0xOTAzMDEwNjE0NTNaFw0yNDAyMjgwNjE0
NTNaMHMxCzAJBgNVBAYTAlVTMQswCQYDVQQIDAJDQTEeMBwGA1UECgwVUmVhbCBU
aW1lIElubm92YXRpb25zMRgwFgYDVQQDDA9kdGxzZXhhbXBsZTNkc2ExHTAbBgkq
hkiG9w0BCQEWDnlvdWRzYUBydGkuY29tMIIDRzCCAjoGByqGSM44BAEwggItAoIB
AQCdtMNLFLeZPulB79CQzOzj9Xcr96NLFx9cLabyOJKk7QKf2tG48deI3Kxb63ZJ
bw8zpJw5iueBDrQRzyRySvCJwxR0QxXerEvB/hq/FOWwP0b41amm6qqGwNsUzRxG
6MBCGKfzQrx53f631OXP9nfFExC6XBE2K2prNPHptN5ybeziR54uS1nz65vC/cV9
ofqlm/53XjFXI/Sbz/p2PrTGszcaxwHNgu+dHf8wUUmWGfjt8+hWfQ4QfwELmFaq
7j33V8qqwZyXBXE5B4h+V15C6rigSuhNaMThur6WEg0Grl+yKhH1NCIzTzMJ9Xnp
KU4kFe1H7m4Fzp4U+aB9ZoBFAiEAj1Y5iJ7NyC2/wixNxIfKoXU5eQOE2yS0anko
niVd1kkCggEBAI2VTayLVkzAwcCdmDkQ0CpRi4kqb5bN6JR5dDvacG9YPEAlyZkY
eye2val4m8x3dAtBAbY5YTMqGh3dfLHqGtKRB30Pu3KjSXaG2D+n2Ny2E+TXPKZs
Fb/5fwBTXKA+L64EtnAj3JAF3EVyqH20QWkt4lNehh3j1JrTxdbLZWPnRZF8pnAv
ybhBD1xivqOKwA/NPpbw5cRlO93YIP6ZJHFns8ngVE7zTfyf+1fawHKPB1JnrkH7
c28fi0gLXTH66IKd5EujRC4ZDdfvqZzTZ5vXOqhuk3LWxynshgEgWoK9/brihhjj
TSttsygcbxOmXe6AOOZzZelgI0FrXluGAI4DggEFAAKCAQAh075cAil6Re5VqtHx
WK3LS2x/V/RWnR2P2yusKp4Mjx73dUrBHASy7GNnlolpnZzrui+McpuGRteD7+OK
7Cz8hAc5cHzzu/GXsXSQVSGCriIvARLXDeiOojWx0jeFVsragfKNc4cuofusm1bw
Hgw+nqi+salwGmjMYSn+2pvHYEh7IIcTQhYTXcAEgP4pIAFKx7cTXQwZlS0fTJ9A
v7BhNe/5Le7FlVuXQlPKQzDuGMm8LOAWH+jMI1F6PxFIpZlICVcuR8dKI7yXvRnn
y+XJOOyjXh0Z8IS1v+tOAC4h1fgJsCAUkQI8RdjqPDwkBe11GoFdLqhUsLskAAVC
8OV6MAsGCWCGSAFlAwQDAgNHADBEAiAR6SuwPOJUX67fBKUAsgwUR0MEUzBaolJP
dPnezX/DPwIgGty9IG6s/9OOilL0fAyjtZ5rTHZjLNFnbRXRBNNxOI4=
-----END CERTIFICATE-----
