Certificate:
    Data:
        Version: 1 (0x0)
        Serial Number:
            98:21:b1:d2:72:de:39:4d
    Signature Algorithm: dsa_with_SHA256
        Issuer: C=US, ST=CA, L=Santa Clara, O=Real Time Innovations, CN=RTI CA/emailAddress=secure@rti.com
        Validity
            Not Before: Mar  1 06:14:53 2019 GMT
            Not After : Feb 28 06:14:53 2024 GMT
        Subject: C=US, ST=CA, O=Real Time Innovations, CN=dtlsexample2dsa/emailAddress=youdsa@rti.com
        Subject Public Key Info:
            Public Key Algorithm: dsaEncryption
                pub: 
                    36:14:a5:8c:58:87:aa:1c:b6:6b:fb:33:c0:fe:c5:
                    33:5a:e8:b3:45:a7:ba:db:87:08:2d:77:83:a5:28:
                    5f:eb:cf:4a:d2:31:d4:82:93:4f:f2:07:ac:60:8c:
                    de:9c:82:b1:c9:ce:6d:2b:f9:99:a4:be:1b:b6:e1:
                    72:10:67:b0:90:6b:57:c5:98:d4:2f:ee:b9:d4:8e:
                    1b:4e:a7:d6:7a:82:f1:88:07:b5:0a:51:42:d2:b3:
                    e4:0b:94:7e:1a:0e:ce:32:7e:d6:3a:67:cf:87:2b:
                    aa:8e:0a:64:4c:51:45:c3:2a:b4:4e:1e:b5:14:30:
                    f8:c9:1c:fc:55:18:1c:d2:50:e6:6c:72:55:07:b8:
                    b0:ac:37:58:ac:36:27:af:c1:b9:52:bb:2a:7d:98:
                    e2:24:da:88:bb:ff:4d:ac:f7:89:13:65:c9:21:d8:
                    54:62:7f:6e:c8:db:ae:aa:a2:ae:d2:9b:1b:8e:da:
                    ac:a7:52:52:52:80:29:fd:07:2a:bf:ef:3d:b7:27:
                    58:32:0d:4a:d3:13:37:8d:7d:69:09:75:f0:f3:44:
                    42:de:38:85:b1:cf:3c:31:06:aa:5a:4b:b0:9f:3e:
                    31:72:30:d1:fc:35:fe:6a:b7:e1:97:8e:cc:db:2f:
                    78:a4:c2:6b:f7:11:0a:d2:75:62:01:4a:e4:c6:6a:
                    4f
                P:   
                    00:86:c3:22:c1:63:0f:f1:74:65:2c:19:35:9a:bf:
                    64:ea:1a:4e:7d:b2:76:7b:ab:2c:ee:ef:71:0b:f5:
                    f6:56:3d:b2:09:aa:f0:bc:c1:95:aa:0d:4a:9a:41:
                    9e:02:58:2f:6f:f7:dd:40:23:8c:c4:da:d3:15:12:
                    7e:71:11:1a:bc:c0:68:f3:af:14:0d:7d:bb:21:ce:
                    86:a6:fa:d7:e5:d2:df:7f:69:a3:f2:1a:cf:b8:bf:
                    a9:7c:fd:ae:e6:68:fb:48:18:e1:e2:13:5c:cd:b8:
                    b4:75:60:97:83:a9:4f:6e:ad:0e:10:0f:9b:f7:5f:
                    64:0f:21:73:b7:8e:93:5d:55:70:e1:2f:3e:52:4d:
                    36:29:fd:3d:23:86:b0:28:de:8d:b6:0b:12:b8:d9:
                    42:26:b2:dd:01:16:02:03:2f:18:79:64:25:b1:7b:
                    67:26:10:6d:4d:6f:7f:8f:97:84:3c:74:0e:18:3b:
                    53:d4:ef:84:6c:91:e6:0e:58:e5:e7:8f:18:11:f4:
                    08:17:94:d6:3e:ba:47:cb:e0:c2:15:7c:85:10:91:
                    eb:79:73:31:e3:2c:5a:98:e1:db:55:dc:d0:5f:d2:
                    7d:ac:d7:86:8a:85:fa:1e:c3:da:25:7c:cc:88:08:
                    24:e0:22:03:38:fe:5f:13:da:82:a5:a1:c0:21:46:
                    d1:3b
                Q:   
                    00:91:34:cb:1e:f9:24:41:16:ce:37:ff:e2:46:ba:
                    fa:a3:cc:2a:5e:fa:ec:a8:ba:08:40:9f:7f:e0:82:
                    74:6c:2f
                G:   
                    4b:61:6f:f3:e0:ca:22:60:3f:85:26:65:63:6d:ef:
                    53:fa:e5:60:43:e6:3c:c5:fc:a5:44:ce:d7:b2:b8:
                    6a:24:95:bc:d9:b9:71:a9:5e:65:b0:2a:73:01:db:
                    e3:31:70:82:c3:bd:a4:da:8f:30:7e:f6:88:86:3e:
                    22:f2:53:34:a6:02:62:f5:b8:96:dc:c7:e9:b2:f9:
                    39:b7:20:58:97:b0:f7:ad:fe:68:3a:bb:24:ee:19:
                    6c:22:40:f0:0c:64:86:0d:5a:5f:01:12:20:b5:35:
                    e3:6f:08:05:c0:c1:0b:0e:4d:fb:61:36:16:86:fe:
                    d5:99:39:2c:a9:4c:45:4d:44:f4:0a:cf:a9:00:36:
                    6a:e3:d7:65:ae:69:7f:13:77:c7:ce:7a:d5:e3:7a:
                    f6:b8:9f:b7:bf:29:d3:de:b9:8b:fd:06:04:02:f0:
                    7b:c3:5b:57:69:ec:2c:c6:8a:6a:46:70:43:78:8a:
                    0b:a1:14:83:4a:69:1d:b4:97:67:22:36:76:1e:38:
                    78:fe:3a:58:92:fc:3f:6d:c4:49:f6:f6:89:3a:10:
                    41:ec:7b:ab:9f:89:6b:bf:b0:c9:c4:cf:a4:a6:39:
                    fd:9c:bd:2e:50:71:78:43:e9:7d:0f:03:c0:42:37:
                    c6:c7:a2:48:5b:d8:cb:42:31:61:4e:69:ae:d1:9d:
                    75
    Signature Algorithm: dsa_with_SHA256
         r:   
             7c:a6:b6:79:df:ee:d2:f0:cc:1d:d0:b4:7e:9d:af:
             7b:7e:85:d6:8e:e2:e8:7f:86:50:29:f6:f3:f2:e0:
             b5:81
         s:   
             00:89:00:d3:05:9e:64:22:6c:eb:9e:ff:07:1d:61:
             21:af:36:90:b2:fc:3a:cb:3d:a1:25:62:eb:f8:a9:
             06:7e:e8
-----BEGIN CERTIFICATE-----
MIIE1TCCBHoCCQCYIbHSct45TTALBglghkgBZQMEAwIwgYAxCzAJBgNVBAYTAlVT
MQswCQYDVQQIDAJDQTEUMBIGA1UEBwwLU2FudGEgQ2xhcmExHjAcBgNVBAoMFVJl
YWwgVGltZSBJbm5vdmF0aW9uczEPMA0GA1UEAwwGUlRJIENBMR0wGwYJKoZIhvcN
AQkBFg5zZWN1cmVAcnRpLmNvbTAeFw0xOTAzMDEwNjE0NTNaFw0yNDAyMjgwNjE0
NTNaMHMxCzAJBgNVBAYTAlVTMQswCQYDVQQIDAJDQTEeMBwGA1UECgwVUmVhbCBU
aW1lIElubm92YXRpb25zMRgwFgYDVQQDDA9kdGxzZXhhbXBsZTJkc2ExHTAbBgkq
hkiG9w0BCQEWDnlvdWRzYUBydGkuY29tMIIDRjCCAjkGByqGSM44BAEwggIsAoIB
AQCGwyLBYw/xdGUsGTWav2TqGk59snZ7qyzu73EL9fZWPbIJqvC8wZWqDUqaQZ4C
WC9v991AI4zE2tMVEn5xERq8wGjzrxQNfbshzoam+tfl0t9/aaPyGs+4v6l8/a7m
aPtIGOHiE1zNuLR1YJeDqU9urQ4QD5v3X2QPIXO3jpNdVXDhLz5STTYp/T0jhrAo
3o22CxK42UImst0BFgIDLxh5ZCWxe2cmEG1Nb3+Pl4Q8dA4YO1PU74RskeYOWOXn
jxgR9AgXlNY+ukfL4MIVfIUQket5czHjLFqY4dtV3NBf0n2s14aKhfoew9olfMyI
CCTgIgM4/l8T2oKlocAhRtE7AiEAkTTLHvkkQRbON//iRrr6o8wqXvrsqLoIQJ9/
4IJ0bC8CggEAS2Fv8+DKImA/hSZlY23vU/rlYEPmPMX8pUTO17K4aiSVvNm5cale
ZbAqcwHb4zFwgsO9pNqPMH72iIY+IvJTNKYCYvW4ltzH6bL5ObcgWJew963+aDq7
JO4ZbCJA8Axkhg1aXwESILU1428IBcDBCw5N+2E2Fob+1Zk5LKlMRU1E9ArPqQA2
auPXZa5pfxN3x8561eN69rift78p0965i/0GBALwe8NbV2nsLMaKakZwQ3iKC6EU
g0ppHbSXZyI2dh44eP46WJL8P23ESfb2iToQQex7q5+Ja7+wycTPpKY5/Zy9LlBx
eEPpfQ8DwEI3xseiSFvYy0IxYU5prtGddQOCAQUAAoIBADYUpYxYh6octmv7M8D+
xTNa6LNFp7rbhwgtd4OlKF/rz0rSMdSCk0/yB6xgjN6cgrHJzm0r+Zmkvhu24XIQ
Z7CQa1fFmNQv7rnUjhtOp9Z6gvGIB7UKUULSs+QLlH4aDs4yftY6Z8+HK6qOCmRM
UUXDKrROHrUUMPjJHPxVGBzSUOZsclUHuLCsN1isNievwblSuyp9mOIk2oi7/02s
94kTZckh2FRif27I266qoq7SmxuO2qynUlJSgCn9Byq/7z23J1gyDUrTEzeNfWkJ
dfDzRELeOIWxzzwxBqpaS7CfPjFyMNH8Nf5qt+GXjszbL3ikwmv3EQrSdWIBSuTG
ak8wCwYJYIZIAWUDBAMCA0gAMEUCIHymtnnf7tLwzB3QtH6dr3t+hdaO4uh/hlAp
9vPy4LWBAiEAiQDTBZ5kImzrnv8HHWEhrzaQsvw6yz2hJWLr+KkGfug=
-----END CERTIFICATE-----
