Certificate:
    Data:
        Version: 1 (0x0)
        Serial Number:
            a5:80:7c:59:1c:b5:21:93
    Signature Algorithm: ecdsa-with-SHA256
        Issuer: C=US, ST=CA, L=Santa Clara, O=Real Time Innovations, CN=RTI CA/emailAddress=secure@rti.com
        Validity
            Not Before: Mar  1 06:14:54 2019 GMT
            Not After : Feb 28 06:14:54 2024 GMT
        Subject: C=US, ST=CA, O=Real Time Innovations, CN=dtlsexampleECdsa/emailAddress=meECdsa@rti.com
        Subject Public Key Info:
            Public Key Algorithm: id-ecPublicKey
                Public-Key: (256 bit)
                pub: 
                    04:82:c2:d9:04:9e:22:4c:36:13:6c:27:3e:81:f8:
                    f6:15:e9:09:63:31:52:4f:01:27:25:81:b1:d9:fa:
                    3b:ec:84:9b:fe:0c:51:e3:86:7c:4b:78:0a:f0:67:
                    7f:e4:4a:ee:3b:2c:81:8f:d1:8e:ad:d5:59:92:fd:
                    de:43:9b:bf:1e
                ASN1 OID: prime256v1
                NIST CURVE: P-256
    Signature Algorithm: ecdsa-with-SHA256
         30:45:02:21:00:c0:4a:18:32:b6:98:df:da:a4:ca:80:7a:f0:
         45:5b:5f:b8:14:c4:f3:b6:00:3b:9c:20:e5:7e:85:f8:6c:dd:
         4f:02:20:61:8b:de:7a:b3:99:ce:0c:53:e5:e9:82:92:5f:d4:
         69:16:20:61:ae:d1:66:c0:2f:c0:58:c3:d9:e9:00:8c:7e
-----BEGIN CERTIFICATE-----
MIIB5jCCAYwCCQClgHxZHLUhkzAKBggqhkjOPQQDAjCBgDELMAkGA1UEBhMCVVMx
CzAJBgNVBAgMAkNBMRQwEgYDVQQHDAtTYW50YSBDbGFyYTEeMBwGA1UECgwVUmVh
bCBUaW1lIElubm92YXRpb25zMQ8wDQYDVQQDDAZSVEkgQ0ExHTAbBgkqhkiG9w0B
CQEWDnNlY3VyZUBydGkuY29tMB4XDTE5MDMwMTA2MTQ1NFoXDTI0MDIyODA2MTQ1
NFowdTELMAkGA1UEBhMCVVMxCzAJBgNVBAgMAkNBMR4wHAYDVQQKDBVSZWFsIFRp
bWUgSW5ub3ZhdGlvbnMxGTAXBgNVBAMMEGR0bHNleGFtcGxlRUNkc2ExHjAcBgkq
hkiG9w0BCQEWD21lRUNkc2FAcnRpLmNvbTBZMBMGByqGSM49AgEGCCqGSM49AwEH
A0IABILC2QSeIkw2E2wnPoH49hXpCWMxUk8BJyWBsdn6O+yEm/4MUeOGfEt4CvBn
f+RK7jssgY/Rjq3VWZL93kObvx4wCgYIKoZIzj0EAwIDSAAwRQIhAMBKGDK2mN/a
pMqAevBFW1+4FMTztgA7nCDlfoX4bN1PAiBhi956s5nODFPl6YKSX9RpFiBhrtFm
wC/AWMPZ6QCMfg==
-----END CERTIFICATE-----
