Certificate:
    Data:
        Version: 1 (0x0)
        Serial Number:
            a5:80:7c:59:1c:b5:21:95
    Signature Algorithm: ecdsa-with-SHA256
        Issuer: C=US, ST=CA, L=Santa Clara, O=Real Time Innovations, CN=RTI CA/emailAddress=secure@rti.com
        Validity
            Not Before: Mar  1 06:14:54 2019 GMT
            Not After : Feb 28 06:14:54 2024 GMT
        Subject: C=US, ST=CA, O=Real Time Innovations, CN=dtlsexample3ECdsa/emailAddress=youECdsa@rti.com
        Subject Public Key Info:
            Public Key Algorithm: id-ecPublicKey
                Public-Key: (256 bit)
                pub: 
                    04:e4:8a:de:3f:9c:42:e5:de:1a:ce:03:00:88:96:
                    c0:76:7a:7e:a9:78:42:fb:17:ab:78:0e:56:2c:13:
                    15:c5:27:05:2a:f4:e2:aa:e5:3e:0d:27:e5:2c:74:
                    af:00:2f:53:77:3f:a8:47:60:2c:3c:ef:26:65:7f:
                    32:d4:56:a1:72
                ASN1 OID: prime256v1
                NIST CURVE: P-256
    Signature Algorithm: ecdsa-with-SHA256
         30:45:02:20:29:e4:24:05:78:68:79:3f:b7:59:3c:57:e9:da:
         ee:ef:ea:12:25:5f:27:bb:6a:4c:cf:73:94:2c:5d:13:5f:0b:
         02:21:00:93:b4:81:58:04:4e:cd:5a:e9:df:37:03:01:59:6f:
         5c:42:1c:24:12:0e:04:16:89:a9:5a:31:02:42:30:f8:b2
-----BEGIN CERTIFICATE-----
MIIB6DCCAY4CCQClgHxZHLUhlTAKBggqhkjOPQQDAjCBgDELMAkGA1UEBhMCVVMx
CzAJBgNVBAgMAkNBMRQwEgYDVQQHDAtTYW50YSBDbGFyYTEeMBwGA1UECgwVUmVh
bCBUaW1lIElubm92YXRpb25zMQ8wDQYDVQQDDAZSVEkgQ0ExHTAbBgkqhkiG9w0B
CQEWDnNlY3VyZUBydGkuY29tMB4XDTE5MDMwMTA2MTQ1NFoXDTI0MDIyODA2MTQ1
NFowdzELMAkGA1UEBhMCVVMxCzAJBgNVBAgMAkNBMR4wHAYDVQQKDBVSZWFsIFRp
bWUgSW5ub3ZhdGlvbnMxGjAYBgNVBAMMEWR0bHNleGFtcGxlM0VDZHNhMR8wHQYJ
KoZIhvcNAQkBFhB5b3VFQ2RzYUBydGkuY29tMFkwEwYHKoZIzj0CAQYIKoZIzj0D
AQcDQgAE5IreP5xC5d4azgMAiJbAdnp+qXhC+xereA5WLBMVxScFKvTiquU+DSfl
LHSvAC9Tdz+oR2AsPO8mZX8y1FahcjAKBggqhkjOPQQDAgNIADBFAiAp5CQFeGh5
P7dZPFfp2u7v6hIlXye7akzPc5QsXRNfCwIhAJO0gVgETs1a6d83AwFZb1xCHCQS
DgQWialaMQJCMPiy
-----END CERTIFICATE-----
