Certificate:
    Data:
        Version: 1 (0x0)
        Serial Number:
            a5:80:7c:59:1c:b5:21:94
    Signature Algorithm: ecdsa-with-SHA256
        Issuer: C=US, ST=CA, L=Santa Clara, O=Real Time Innovations, CN=RTI CA/emailAddress=secure@rti.com
        Validity
            Not Before: Mar  1 06:14:54 2019 GMT
            Not After : Feb 28 06:14:54 2024 GMT
        Subject: C=US, ST=CA, O=Real Time Innovations, CN=dtlsexample2ECdsa/emailAddress=youECdsa@rti.com
        Subject Public Key Info:
            Public Key Algorithm: id-ecPublicKey
                Public-Key: (256 bit)
                pub: 
                    04:5a:23:4f:c7:5e:fa:6a:ad:f6:fc:52:c9:17:24:
                    9e:5c:67:bf:2b:3e:d1:8c:4d:01:d4:68:1f:98:d3:
                    d0:66:ac:43:26:30:46:c7:fc:ec:b3:c4:49:41:a3:
                    61:fc:42:6d:58:aa:6c:a8:7b:5d:f5:ce:13:b6:7c:
                    05:c2:09:bc:0f
                ASN1 OID: prime256v1
                NIST CURVE: P-256
    Signature Algorithm: ecdsa-with-SHA256
         30:45:02:20:42:41:ed:4d:ed:93:b9:f2:ef:70:cb:c9:ff:9b:
         c6:70:6b:03:76:9d:f8:c1:66:90:3f:4c:de:48:07:2a:1d:91:
         02:21:00:94:de:67:a4:9d:da:95:ab:c6:50:d8:04:5d:82:96:
         c1:49:f6:db:d7:c6:94:6d:6f:79:da:7d:c7:8c:73:73:27
-----BEGIN CERTIFICATE-----
MIIB6DCCAY4CCQClgHxZHLUhlDAKBggqhkjOPQQDAjCBgDELMAkGA1UEBhMCVVMx
CzAJBgNVBAgMAkNBMRQwEgYDVQQHDAtTYW50YSBDbGFyYTEeMBwGA1UECgwVUmVh
bCBUaW1lIElubm92YXRpb25zMQ8wDQYDVQQDDAZSVEkgQ0ExHTAbBgkqhkiG9w0B
CQEWDnNlY3VyZUBydGkuY29tMB4XDTE5MDMwMTA2MTQ1NFoXDTI0MDIyODA2MTQ1
NFowdzELMAkGA1UEBhMCVVMxCzAJBgNVBAgMAkNBMR4wHAYDVQQKDBVSZWFsIFRp
bWUgSW5ub3ZhdGlvbnMxGjAYBgNVBAMMEWR0bHNleGFtcGxlMkVDZHNhMR8wHQYJ
KoZIhvcNAQkBFhB5b3VFQ2RzYUBydGkuY29tMFkwEwYHKoZIzj0CAQYIKoZIzj0D
AQcDQgAEWiNPx176aq32/FLJFySeXGe/Kz7RjE0B1GgfmNPQZqxDJjBGx/zss8RJ
QaNh/EJtWKpsqHtd9c4TtnwFwgm8DzAKBggqhkjOPQQDAgNIADBFAiBCQe1N7ZO5
8u9wy8n/m8ZwawN2nfjBZpA/TN5IByodkQIhAJTeZ6Sd2pWrxlDYBF2ClsFJ9tvX
xpRtb3nafceMc3Mn
-----END CERTIFICATE-----
