Certificate:
    Data:
        Version: 1 (0x0)
        Serial Number:
            dd:17:ca:70:c0:61:98:32
    Signature Algorithm: sha256WithRSAEncryption
        Issuer: C=US, ST=CA, L=Santa Clara, O=Real Time Innovations, CN=RTI CA/emailAddress=secure@rti.com
        Validity
            Not Before: Mar  1 06:14:52 2019 GMT
            Not After : Feb 28 06:14:52 2024 GMT
        Subject: C=US, ST=CA, O=Real Time Innovations, CN=dtlsexample3/emailAddress=you@rti.com
        Subject Public Key Info:
            Public Key Algorithm: rsaEncryption
                Public-Key: (2048 bit)
                Modulus:
                    00:e7:06:37:85:92:5a:81:d7:10:96:11:34:b9:7a:
                    a0:8f:fd:91:bd:c0:ea:36:30:a6:81:47:23:c1:a6:
                    c1:52:57:fc:0d:06:5d:4e:74:18:b9:ea:a5:e3:b8:
                    2a:1e:2e:aa:a6:8e:df:aa:02:c6:36:75:c3:7c:c6:
                    82:c8:5a:21:4e:ae:05:25:1f:27:b5:35:8c:9d:d3:
                    cf:b5:5b:38:c7:c0:ce:92:7e:a9:1a:dd:1f:59:f4:
                    91:ea:b5:03:e0:e1:1a:77:14:2b:f6:36:20:a7:07:
                    a7:90:47:e0:88:07:ff:0a:6a:19:e4:b1:59:7b:7e:
                    d8:c5:c2:7a:be:2a:d0:db:42:f3:7a:64:e5:32:5b:
                    88:50:10:fc:3c:86:6b:e0:57:f1:08:0c:66:31:21:
                    82:67:ad:dc:4e:7a:4b:9b:dc:2f:63:76:47:1c:dd:
                    b0:db:c5:d7:49:b1:a8:db:f3:76:a1:32:99:a7:ba:
                    8f:cb:77:5a:fa:4f:ad:66:5f:02:a2:6e:82:fc:0e:
                    bc:0b:87:36:13:ac:9c:0a:93:ad:32:80:bc:f9:e3:
                    1c:59:e3:b6:a8:c8:bb:6e:e1:6b:27:b5:1b:72:59:
                    21:56:f9:c6:58:52:3b:0f:b2:23:0e:e7:81:cc:58:
                    66:ed:0a:0d:5f:43:80:4a:47:f4:5e:01:5a:94:e3:
                    14:d5
                Exponent: 65537 (0x10001)
    Signature Algorithm: sha256WithRSAEncryption
         74:d9:96:8b:e9:16:08:82:c0:33:ee:3d:16:fe:ef:5d:ff:39:
         99:31:cc:0a:ef:bd:88:a5:d7:85:a9:3e:64:ae:5e:13:4e:18:
         1d:58:06:b1:4a:89:05:8c:13:91:e2:d9:fd:07:ad:88:90:7e:
         eb:1a:7e:18:e6:90:ee:f3:71:0e:4c:67:de:88:87:b0:13:5f:
         25:fc:94:d3:b3:b3:07:25:c4:00:09:0a:07:11:2f:20:4a:23:
         50:90:9b:84:fa:e7:f0:54:e9:ab:1b:2e:25:a6:9e:24:e0:2b:
         f8:1e:6e:6e:a0:69:2c:3b:4d:99:da:59:2e:9a:ab:07:8f:a4:
         66:aa:3c:4b:c3:b4:81:80:84:7d:c7:b5:fd:ff:f4:97:8d:da:
         47:a5:8a:a0:7c:a0:ed:9e:71:93:52:a0:49:20:dd:a1:32:d8:
         72:32:56:d4:f9:95:95:3f:3f:ea:3b:8b:19:2c:6e:2a:5b:20:
         f8:88:70:d3:bc:af:4c:11:fe:1b:85:3b:5e:27:46:8b:fe:e3:
         0f:7a:d6:cc:60:0d:1d:35:9c:5c:d1:3c:a5:55:0e:51:23:1f:
         df:bc:5c:eb:96:55:9c:35:0a:6d:40:f6:8e:50:ed:12:90:7e:
         4d:30:fc:0c:26:cb:24:ba:ba:a5:82:13:6f:57:c1:5b:a3:9a:
         f2:d7:aa:e8
-----BEGIN CERTIFICATE-----
MIIDajCCAlICCQDdF8pwwGGYMjANBgkqhkiG9w0BAQsFADCBgDELMAkGA1UEBhMC
VVMxCzAJBgNVBAgMAkNBMRQwEgYDVQQHDAtTYW50YSBDbGFyYTEeMBwGA1UECgwV
UmVhbCBUaW1lIElubm92YXRpb25zMQ8wDQYDVQQDDAZSVEkgQ0ExHTAbBgkqhkiG
9w0BCQEWDnNlY3VyZUBydGkuY29tMB4XDTE5MDMwMTA2MTQ1MloXDTI0MDIyODA2
MTQ1MlowbTELMAkGA1UEBhMCVVMxCzAJBgNVBAgMAkNBMR4wHAYDVQQKDBVSZWFs
IFRpbWUgSW5ub3ZhdGlvbnMxFTATBgNVBAMMDGR0bHNleGFtcGxlMzEaMBgGCSqG
SIb3DQEJARYLeW91QHJ0aS5jb20wggEiMA0GCSqGSIb3DQEBAQUAA4IBDwAwggEK
AoIBAQDnBjeFklqB1xCWETS5eqCP/ZG9wOo2MKaBRyPBpsFSV/wNBl1OdBi56qXj
uCoeLqqmjt+qAsY2dcN8xoLIWiFOrgUlHye1NYyd08+1WzjHwM6Sfqka3R9Z9JHq
tQPg4Rp3FCv2NiCnB6eQR+CIB/8KahnksVl7ftjFwnq+KtDbQvN6ZOUyW4hQEPw8
hmvgV/EIDGYxIYJnrdxOekub3C9jdkcc3bDbxddJsajb83ahMpmnuo/Ld1r6T61m
XwKiboL8DrwLhzYTrJwKk60ygLz54xxZ47aoyLtu4WsntRtyWSFW+cZYUjsPsiMO
54HMWGbtCg1fQ4BKR/ReAVqU4xTVAgMBAAEwDQYJKoZIhvcNAQELBQADggEBAHTZ
lovpFgiCwDPuPRb+713/OZkxzArvvYil14WpPmSuXhNOGB1YBrFKiQWME5Hi2f0H
rYiQfusafhjmkO7zcQ5MZ96Ih7ATXyX8lNOzswclxAAJCgcRLyBKI1CQm4T65/BU
6asbLiWmniTgK/gebm6gaSw7TZnaWS6aqwePpGaqPEvDtIGAhH3Htf3/9JeN2kel
iqB8oO2ecZNSoEkg3aEy2HIyVtT5lZU/P+o7ixksbipbIPiIcNO8r0wR/huFO14n
Rov+4w961sxgDR01nFzRPKVVDlEjH9+8XOuWVZw1Cm1A9o5Q7RKQfk0w/AwmyyS6
uqWCE29XwVujmvLXqug=
-----END CERTIFICATE-----
