Certificate:
    Data:
        Version: 1 (0x0)
        Serial Number:
            dd:17:ca:70:c0:61:98:2f
    Signature Algorithm: sha256WithRSAEncryption
        Issuer: C=US, ST=CA, L=Santa Clara, O=Real Time Innovations, CN=RTI CA/emailAddress=secure@rti.com
        Validity
            Not Before: Mar  1 06:14:51 2019 GMT
            Not After : Feb 28 06:14:51 2024 GMT
        Subject: C=US, ST=CA, O=Real Time Innovations, CN=dtlsexample2/emailAddress=you@rti.com
        Subject Public Key Info:
            Public Key Algorithm: rsaEncryption
                Public-Key: (2048 bit)
                Modulus:
                    00:d8:99:82:af:c5:d3:49:35:7b:a4:55:a2:c0:d4:
                    be:19:5d:f3:20:24:20:f1:d3:e0:a1:5a:fa:b7:ff:
                    2a:a7:5d:bd:35:22:a8:4e:bb:05:b1:b7:5d:6e:6f:
                    4d:55:17:05:3e:14:f5:39:84:29:49:4b:06:58:ca:
                    8e:b8:a0:5c:e5:e1:b4:85:8d:52:63:2c:7f:36:23:
                    45:78:70:25:82:d7:68:d2:3a:51:b9:a3:46:75:19:
                    e6:6d:0b:1f:e2:2c:ce:da:0c:b9:2c:8e:7f:f1:04:
                    3b:a7:8b:a9:e6:c0:c6:3e:00:34:8c:c3:1b:57:25:
                    76:04:59:e2:c5:c6:78:94:b0:04:53:af:86:5d:f8:
                    bb:8b:bc:97:d2:13:a6:a2:c2:6c:b6:65:da:98:96:
                    3b:03:b4:d1:46:be:25:0b:a6:40:ac:0a:74:f3:55:
                    7c:c4:71:3a:c9:a6:0c:b8:02:58:90:36:4a:cc:cc:
                    73:74:93:56:e3:86:83:c1:3f:16:38:72:c3:b6:5f:
                    10:e7:db:e3:14:5c:50:f2:ed:d9:63:99:3d:f6:48:
                    bd:5e:1b:c9:d5:90:04:4e:15:72:65:31:9d:40:57:
                    2d:e8:01:8c:17:58:58:09:9b:46:3a:b5:57:e3:a0:
                    58:60:ad:e7:00:24:3e:34:59:f9:fa:1d:8c:12:c6:
                    e4:d3
                Exponent: 65537 (0x10001)
    Signature Algorithm: sha256WithRSAEncryption
         18:41:d4:15:07:b9:f7:c2:7f:dd:56:85:52:b6:3a:67:93:a8:
         d9:d8:f4:74:53:3c:52:74:4f:27:9c:7a:a1:e0:93:ff:af:e1:
         24:35:56:fc:be:4d:91:8d:78:0e:28:99:b7:37:b1:58:d8:a1:
         d8:e6:7d:d5:b8:1e:b9:5a:06:87:30:86:5a:54:75:4f:ef:2c:
         dd:6c:a9:28:6f:6a:42:e1:1c:46:fe:d5:5a:26:2e:79:c4:89:
         85:23:e7:e3:a1:a9:7e:c0:51:8b:b3:aa:b7:28:14:69:58:ce:
         65:6d:02:6b:d3:5b:b3:8b:88:d5:c0:62:03:9d:1e:1a:c9:e3:
         90:1a:6c:3c:44:07:85:19:6b:81:3b:5f:07:31:d9:a6:00:a2:
         0b:6c:37:31:a6:1f:7e:74:52:e1:38:df:a4:e8:ef:a2:9f:9e:
         7f:ac:52:86:c9:d7:88:3b:ab:a7:2c:68:6a:89:28:f3:05:eb:
         3d:54:f7:d9:86:b2:ef:88:e2:fd:a5:34:72:b0:2a:12:91:06:
         ca:09:53:b2:1c:c5:1e:f0:7c:7d:b5:bc:14:f9:c0:93:44:73:
         61:90:5b:67:31:de:66:aa:1d:66:30:ad:36:1a:7f:ba:0b:89:
         ed:9f:19:4a:e0:38:25:51:51:da:e9:cb:f9:a9:8c:92:79:db:
         80:14:2a:8f
-----BEGIN CERTIFICATE-----
MIIDajCCAlICCQDdF8pwwGGYLzANBgkqhkiG9w0BAQsFADCBgDELMAkGA1UEBhMC
VVMxCzAJBgNVBAgMAkNBMRQwEgYDVQQHDAtTYW50YSBDbGFyYTEeMBwGA1UECgwV
UmVhbCBUaW1lIElubm92YXRpb25zMQ8wDQYDVQQDDAZSVEkgQ0ExHTAbBgkqhkiG
9w0BCQEWDnNlY3VyZUBydGkuY29tMB4XDTE5MDMwMTA2MTQ1MVoXDTI0MDIyODA2
MTQ1MVowbTELMAkGA1UEBhMCVVMxCzAJBgNVBAgMAkNBMR4wHAYDVQQKDBVSZWFs
IFRpbWUgSW5ub3ZhdGlvbnMxFTATBgNVBAMMDGR0bHNleGFtcGxlMjEaMBgGCSqG
SIb3DQEJARYLeW91QHJ0aS5jb20wggEiMA0GCSqGSIb3DQEBAQUAA4IBDwAwggEK
AoIBAQDYmYKvxdNJNXukVaLA1L4ZXfMgJCDx0+ChWvq3/yqnXb01IqhOuwWxt11u
b01VFwU+FPU5hClJSwZYyo64oFzl4bSFjVJjLH82I0V4cCWC12jSOlG5o0Z1GeZt
Cx/iLM7aDLksjn/xBDuni6nmwMY+ADSMwxtXJXYEWeLFxniUsARTr4Zd+LuLvJfS
E6aiwmy2ZdqYljsDtNFGviULpkCsCnTzVXzEcTrJpgy4AliQNkrMzHN0k1bjhoPB
PxY4csO2XxDn2+MUXFDy7dljmT32SL1eG8nVkAROFXJlMZ1AVy3oAYwXWFgJm0Y6
tVfjoFhgrecAJD40Wfn6HYwSxuTTAgMBAAEwDQYJKoZIhvcNAQELBQADggEBABhB
1BUHuffCf91WhVK2OmeTqNnY9HRTPFJ0TyeceqHgk/+v4SQ1Vvy+TZGNeA4ombc3
sVjYodjmfdW4HrlaBocwhlpUdU/vLN1sqShvakLhHEb+1VomLnnEiYUj5+OhqX7A
UYuzqrcoFGlYzmVtAmvTW7OLiNXAYgOdHhrJ45AabDxEB4UZa4E7Xwcx2aYAogts
NzGmH350UuE436To76Kfnn+sUobJ14g7q6csaGqJKPMF6z1U99mGsu+I4v2lNHKw
KhKRBsoJU7IcxR7wfH21vBT5wJNEc2GQW2cx3maqHWYwrTYaf7oLie2fGUrgOCVR
Udrpy/mpjJJ524AUKo8=
-----END CERTIFICATE-----
