Certificate:
    Data:
        Version: 1 (0x0)
        Serial Number:
            11:60:03:2e:59:95:b6:07:6b:bf:0d:42:57:6a:c6:88:d9:07:4d:02
        Signature Algorithm: NULL
        Issuer: C = US, ST = CA, L = Santa Clara, O = Real Time Innovations, emailAddress = ecdsa01ParticipantC@rti.com, CN = Whitelist Participant C
        Validity
            Not Before: Nov  9 17:43:57 2023 GMT
            Not After : Nov  8 17:43:57 2025 GMT
        Subject: C = US, ST = CA, L = Santa Clara, O = Real Time Innovations, emailAddress = ecdsa01ParticipantC@rti.com, CN = Whitelist Participant C
        Subject Public Key Info:
            Public Key Algorithm: rsaEncryption
                RSA Public-Key: (2048 bit)
                Modulus:
                    00:e3:d9:e0:f0:78:fe:04:c3:b0:8f:a1:8b:ca:af:
                    b2:40:53:83:35:a7:21:15:be:04:c0:bb:a7:cc:03:
                    3c:39:6c:01:0f:38:31:44:52:1e:c1:6a:d0:3d:82:
                    82:90:43:5a:c9:c3:a0:42:d4:c5:a8:cf:50:83:5c:
                    de:59:6e:55:5b:eb:be:d6:02:dc:61:35:06:17:c1:
                    4a:e7:ed:41:cd:31:6e:55:05:e5:89:f5:66:1f:05:
                    f3:84:3b:7e:9e:67:2a:4e:d2:14:2b:cc:cc:2f:c4:
                    c2:25:91:a4:51:4b:1f:85:78:15:51:ea:07:72:63:
                    db:f0:4a:a9:42:6a:aa:14:21:f2:e3:09:df:b0:e4:
                    93:d8:cf:fd:c2:90:06:40:1c:e2:3a:fe:1d:6f:62:
                    5e:0c:dd:c8:89:48:66:3d:24:aa:ea:4f:44:8f:ae:
                    b9:0e:5a:a8:d8:84:30:91:4b:5f:a6:15:d7:c9:f2:
                    be:e8:ec:1f:50:db:ac:b7:64:e3:1a:62:a3:7d:cd:
                    ef:a4:a1:92:be:02:b3:fb:ca:ab:4d:36:18:34:b1:
                    1c:f1:e8:46:02:02:ca:2d:51:4f:51:2f:05:fe:15:
                    b6:39:7f:a3:43:e7:db:ce:c1:57:e7:d0:79:f7:d3:
                    53:42:57:f1:2f:7a:33:11:46:05:d5:f9:7a:56:e0:
                    b1:51
                Exponent: 65537 (0x10001)
    Signature Algorithm: NULL
-----BEGIN CERTIFICATE-----
MIIC7jCCApQCAQQwCgYIKoZIzj0EAwIwgZsxCzAJBgNVBAYTAlVTMQswCQYDVQQI
DAJDQTEUMBIGA1UEBwwLU2FudGEgQ2xhcmExHjAcBgNVBAoMFVJlYWwgVGltZSBJ
bm5vdmF0aW9uczEjMCEGA1UEAwwaUlRJIEVDRFNBMDEgKHAyNTYpIFJPT1QgQ0Ex
JDAiBgkqhkiG9w0BCQEWFWVjZHNhMDFSb290Q2FAcnRpLmNvbTAeFw0yMzExMDkx
NzQzNTdaFw0yNTExMDgxNzQzNTdaMIGeMQswCQYDVQQGEwJVUzELMAkGA1UECAwC
Q0ExFDASBgNVBAcMC1NhbnRhIENsYXJhMR4wHAYDVQQKDBVSZWFsIFRpbWUgSW5u
b3ZhdGlvbnMxKjAoBgkqhkiG9w0BCQEWG2VjZHNhMDFQYXJ0aWNpcGFudENAcnRp
LmNvbTEgMB4GA1UEAwwXV2hpdGVsaXN0IFBhcnRpY2lwYW50IEMwggEiMA0GCSqG
SIb3DQEBAQUAA4IBDwAwggEKAoIBAQDj2eDweP4Ew7CPoYvKr7JAU4M1pyEVvgTA
u6fMAzw5bAEPODFEUh7BatA9goKQQ1rJw6BC1MWoz1CDXN5ZblVb677WAtxhNQYX
wUrn7UHNMW5VBeWJ9WYfBfOEO36eZypO0hQrzMwvxMIlkaRRSx+FeBVR6gdyY9vw
SqlCaqoUIfLjCd+w5JPYz/3CkAZAHOI6/h1vYl4M3ciJSGY9JKrqT0SPrrkOWqjY
hDCRS1+mFdfJ8r7o7B9Q26y3ZOMaYqN9ze+koZK+ArP7yqtNNhg0sRzx6EYCAsot
UU9RLwX+FbY5f6ND59vOwVfn0Hn301NCV/EvejMRRgXV+XpW4LFRAgMBAAEwCgYI
KoZIzj0EAwIDSAAwRQIhAPCCrw/Td7n9/aLtPUQMKGpwZilE6x6CFgklZ/74Ntk7
AiA4OV0Bq6Y1DAQXcQmRntCLeoX9eHur3lH9w+ybhiLhCQ==
-----END CERTIFICATE-----
