Certificate:
    Data:
        Version: 1 (0x0)
        Serial Number:
            7d:05:bb:92:1f:8c:ab:5d:fa:2e:c8:9b:61:87:86:e4:1c:c8:b4:00
        Signature Algorithm: ecdsa-with-SHA256
        Issuer: C = US, ST = CA, L = Santa Clara, O = Real Time Innovations, CN = RTI ECDSA01 (p256) ROOT CA, emailAddress = ecdsa01RootCa@rti.com
        Validity
            Not Before: Nov  9 17:43:57 2023 GMT
            Not After : Nov  7 17:43:57 2028 GMT
        Subject: C = US, ST = CA, L = Santa Clara, O = Real Time Innovations, CN = RTI ECDSA01 (p256) ROOT CA, emailAddress = ecdsa01RootCa@rti.com
        Subject Public Key Info:
            Public Key Algorithm: id-ecPublicKey
                Public-Key: (256 bit)
                pub:
                    04:5c:ac:80:3d:3a:2c:f2:26:02:bc:36:77:35:13:
                    87:04:73:48:95:8b:12:58:02:22:d5:05:f7:9d:97:
                    f7:52:53:ab:cf:a8:92:34:37:f3:5c:63:20:f4:4a:
                    c2:5d:d4:a8:35:f3:f3:8e:62:57:0f:fd:72:09:2d:
                    0f:20:23:92:1d
                ASN1 OID: prime256v1
                NIST CURVE: P-256
    Signature Algorithm: ecdsa-with-SHA256
         30:45:02:21:00:b8:7b:40:6d:6a:a0:c6:c7:e6:1d:c4:33:5f:
         de:33:a8:dc:ef:fa:47:ad:2c:87:6c:1f:95:52:b5:34:c4:f8:
         6a:02:20:72:c2:e2:e0:87:8e:6c:e9:1f:16:8d:ca:a9:61:6f:
         90:78:60:47:a5:c5:a6:53:73:9f:62:7a:21:cb:58:cf:e1
-----BEGIN CERTIFICATE-----
MIICMzCCAdkCFH0Fu5IfjKtd+i7Im2GHhuQcyLQAMAoGCCqGSM49BAMCMIGbMQsw
CQYDVQQGEwJVUzELMAkGA1UECAwCQ0ExFDASBgNVBAcMC1NhbnRhIENsYXJhMR4w
HAYDVQQKDBVSZWFsIFRpbWUgSW5ub3ZhdGlvbnMxIzAhBgNVBAMMGlJUSSBFQ0RT
QTAxIChwMjU2KSBST09UIENBMSQwIgYJKoZIhvcNAQkBFhVlY2RzYTAxUm9vdENh
QHJ0aS5jb20wHhcNMjMxMTA5MTc0MzU3WhcNMjgxMTA3MTc0MzU3WjCBmzELMAkG
A1UEBhMCVVMxCzAJBgNVBAgMAkNBMRQwEgYDVQQHDAtTYW50YSBDbGFyYTEeMBwG
A1UECgwVUmVhbCBUaW1lIElubm92YXRpb25zMSMwIQYDVQQDDBpSVEkgRUNEU0Ew
MSAocDI1NikgUk9PVCBDQTEkMCIGCSqGSIb3DQEJARYVZWNkc2EwMVJvb3RDYUBy
dGkuY29tMFkwEwYHKoZIzj0CAQYIKoZIzj0DAQcDQgAEXKyAPTos8iYCvDZ3NROH
BHNIlYsSWAIi1QX3nZf3UlOrz6iSNDfzXGMg9ErCXdSoNfPzjmJXD/1yCS0PICOS
HTAKBggqhkjOPQQDAgNIADBFAiEAuHtAbWqgxsfmHcQzX94zqNzv+ketLIdsH5VS
tTTE+GoCIHLC4uCHjmzpHxaNyqlhb5B4YEelxaZTc59ieiHLWM/h
-----END CERTIFICATE-----
