Certificate:
    Data:
        Version: 1 (0x0)
        Serial Number:
            1c:ab:d8:18:86:2d:aa:7b:4c:f4:a6:bd:85:90:bc:d9:c6:23:42:5d
        Signature Algorithm: NULL
        Issuer: C = US, ST = CA, L = Santa Clara, O = Real Time Innovations, emailAddress = ecdsa01ParticipantB@rti.com, CN = Crl Participant B
        Validity
            Not Before: Nov  9 19:42:37 2023 GMT
            Not After : Nov  8 19:42:37 2025 GMT
        Subject: C = US, ST = CA, L = Santa Clara, O = Real Time Innovations, emailAddress = ecdsa01ParticipantB@rti.com, CN = Crl Participant B
        Subject Public Key Info:
            Public Key Algorithm: rsaEncryption
                RSA Public-Key: (2048 bit)
                Modulus:
                    00:cc:ab:6e:61:58:26:b9:b8:13:17:42:36:3e:14:
                    07:0d:42:0a:bf:81:1a:c9:38:db:c7:87:c7:2f:09:
                    f1:c9:46:16:95:be:0d:b3:e2:2f:f7:82:ee:97:e0:
                    7e:4e:41:03:d1:7b:ad:60:57:55:f7:d6:f4:24:77:
                    62:42:3d:17:1e:c0:9d:30:c8:d2:2a:92:4c:ee:87:
                    5a:ab:ba:23:ab:fd:53:34:75:cd:1a:29:76:76:6a:
                    23:c2:b4:d7:4e:4d:2f:b1:c8:9b:da:8f:67:be:6c:
                    3b:33:f5:82:62:11:a9:7b:1a:03:ec:48:46:f4:00:
                    33:1c:ac:64:4f:0c:4f:65:69:4d:1b:bb:45:35:77:
                    fa:89:9b:6c:79:1f:50:d1:a0:0b:8e:79:34:d7:e6:
                    9c:d5:cf:ee:0e:a8:b7:b3:1f:14:31:13:fe:10:9e:
                    24:31:b3:48:06:f7:65:b0:74:10:38:f9:1b:45:7d:
                    fd:b3:5e:9b:4a:f2:ab:eb:35:59:e2:f9:fc:7d:27:
                    cd:62:6f:a4:ce:90:97:aa:9b:3b:16:d5:5e:db:af:
                    a3:6b:3c:36:cc:d2:28:d1:0f:ca:97:20:bd:20:07:
                    f8:57:06:dd:1a:d8:b1:e0:5e:df:a8:a1:ef:94:98:
                    40:55:bd:47:94:9b:f6:aa:f0:91:e4:ca:80:88:f0:
                    d0:8f
                Exponent: 65537 (0x10001)
    Signature Algorithm: NULL
-----BEGIN CERTIFICATE-----
MIIC6TCCAo4CAQcwCgYIKoZIzj0EAwIwgZsxCzAJBgNVBAYTAlVTMQswCQYDVQQI
DAJDQTEUMBIGA1UEBwwLU2FudGEgQ2xhcmExHjAcBgNVBAoMFVJlYWwgVGltZSBJ
bm5vdmF0aW9uczEjMCEGA1UEAwwaUlRJIEVDRFNBMDEgKHAyNTYpIFJPT1QgQ0Ex
JDAiBgkqhkiG9w0BCQEWFWVjZHNhMDFSb290Q2FAcnRpLmNvbTAeFw0yMzExMDkx
OTQyMzdaFw0yNTExMDgxOTQyMzdaMIGYMQswCQYDVQQGEwJVUzELMAkGA1UECAwC
Q0ExFDASBgNVBAcMC1NhbnRhIENsYXJhMR4wHAYDVQQKDBVSZWFsIFRpbWUgSW5u
b3ZhdGlvbnMxKjAoBgkqhkiG9w0BCQEWG2VjZHNhMDFQYXJ0aWNpcGFudEJAcnRp
LmNvbTEaMBgGA1UEAwwRQ3JsIFBhcnRpY2lwYW50IEIwggEiMA0GCSqGSIb3DQEB
AQUAA4IBDwAwggEKAoIBAQDMq25hWCa5uBMXQjY+FAcNQgq/gRrJONvHh8cvCfHJ
RhaVvg2z4i/3gu6X4H5OQQPRe61gV1X31vQkd2JCPRcewJ0wyNIqkkzuh1qruiOr
/VM0dc0aKXZ2aiPCtNdOTS+xyJvaj2e+bDsz9YJiEal7GgPsSEb0ADMcrGRPDE9l
aU0bu0U1d/qJm2x5H1DRoAuOeTTX5pzVz+4OqLezHxQxE/4QniQxs0gG92WwdBA4
+RtFff2zXptK8qvrNVni+fx9J81ib6TOkJeqmzsW1V7br6NrPDbM0ijRD8qXIL0g
B/hXBt0a2LHgXt+ooe+UmEBVvUeUm/aq8JHkyoCI8NCPAgMBAAEwCgYIKoZIzj0E
AwIDSQAwRgIhAJLYqrK3ZvByuYM1vOMPIrQZKWZc6KnBBPbbxvDFRsEaAiEA8GJQ
E5M7bKcSrHMCZo05lhQwFuT4Yq+jDEPkh1nHVVk=
-----END CERTIFICATE-----
