Certificate:
    Data:
        Version: 1 (0x0)
        Serial Number:
            67:40:89:bb:24:33:4a:6c:4c:79:87:16:0f:76:46:f0:80:74:6b:73
        Signature Algorithm: NULL
        Issuer: C = US, ST = CA, L = Santa Clara, O = Real Time Innovations, emailAddress = ecdsa01ParticipantA@rti.com, CN = Whitelist Participant A
        Validity
            Not Before: Nov  9 17:43:57 2023 GMT
            Not After : Nov  8 17:43:57 2025 GMT
        Subject: C = US, ST = CA, L = Santa Clara, O = Real Time Innovations, emailAddress = ecdsa01ParticipantA@rti.com, CN = Whitelist Participant A
        Subject Public Key Info:
            Public Key Algorithm: rsaEncryption
                RSA Public-Key: (2048 bit)
                Modulus:
                    00:c9:d8:96:77:76:fc:f8:32:0b:03:c8:19:77:4e:
                    65:1d:f3:76:fe:29:bc:c2:3c:3f:3b:b9:6b:9e:df:
                    d5:3a:c7:a8:89:94:0d:14:8a:f9:84:fd:61:4d:9b:
                    44:dc:c8:f9:8f:37:7d:cc:bd:26:c2:cf:d1:bd:d8:
                    18:66:60:0e:f6:19:62:5c:0b:cc:3d:64:d3:04:5d:
                    23:c3:bb:15:b0:3c:99:87:73:fc:32:f2:d6:63:41:
                    78:a4:e5:a5:f8:3e:d6:9c:fe:25:d9:b5:54:bc:01:
                    d8:c1:46:f7:1b:b0:ef:40:2d:7c:01:c3:e2:16:fc:
                    14:06:bf:6a:0c:10:4c:b2:48:a3:51:c5:39:aa:c5:
                    0d:40:6e:fa:08:27:44:78:3a:44:1d:59:10:0a:da:
                    a0:93:7b:18:8f:69:d6:c2:4e:54:51:f4:55:35:fe:
                    6f:fd:49:ae:2f:ae:2d:6a:8a:53:0e:61:ba:c7:89:
                    5e:c0:1e:16:97:76:44:f5:fe:38:0e:98:91:86:16:
                    9e:c9:16:3f:c0:64:f2:70:f5:18:2e:a7:ca:78:23:
                    ae:e4:35:e2:2e:9d:58:a2:01:da:ce:d0:be:d2:ac:
                    6e:1d:9e:1c:89:86:f0:2d:98:9d:8f:59:8a:32:fe:
                    1e:93:2d:86:b9:1c:76:75:df:88:ea:22:f1:56:a9:
                    b1:a3
                Exponent: 65537 (0x10001)
    Signature Algorithm: NULL
-----BEGIN CERTIFICATE-----
MIIC7zCCApQCAQIwCgYIKoZIzj0EAwIwgZsxCzAJBgNVBAYTAlVTMQswCQYDVQQI
DAJDQTEUMBIGA1UEBwwLU2FudGEgQ2xhcmExHjAcBgNVBAoMFVJlYWwgVGltZSBJ
bm5vdmF0aW9uczEjMCEGA1UEAwwaUlRJIEVDRFNBMDEgKHAyNTYpIFJPT1QgQ0Ex
JDAiBgkqhkiG9w0BCQEWFWVjZHNhMDFSb290Q2FAcnRpLmNvbTAeFw0yMzExMDkx
NzQzNTdaFw0yNTExMDgxNzQzNTdaMIGeMQswCQYDVQQGEwJVUzELMAkGA1UECAwC
Q0ExFDASBgNVBAcMC1NhbnRhIENsYXJhMR4wHAYDVQQKDBVSZWFsIFRpbWUgSW5u
b3ZhdGlvbnMxKjAoBgkqhkiG9w0BCQEWG2VjZHNhMDFQYXJ0aWNpcGFudEFAcnRp
LmNvbTEgMB4GA1UEAwwXV2hpdGVsaXN0IFBhcnRpY2lwYW50IEEwggEiMA0GCSqG
SIb3DQEBAQUAA4IBDwAwggEKAoIBAQDJ2JZ3dvz4MgsDyBl3TmUd83b+KbzCPD87
uWue39U6x6iJlA0UivmE/WFNm0TcyPmPN33MvSbCz9G92BhmYA72GWJcC8w9ZNME
XSPDuxWwPJmHc/wy8tZjQXik5aX4Ptac/iXZtVS8AdjBRvcbsO9ALXwBw+IW/BQG
v2oMEEyySKNRxTmqxQ1AbvoIJ0R4OkQdWRAK2qCTexiPadbCTlRR9FU1/m/9Sa4v
ri1qilMOYbrHiV7AHhaXdkT1/jgOmJGGFp7JFj/AZPJw9Rgup8p4I67kNeIunVii
AdrO0L7SrG4dnhyJhvAtmJ2PWYoy/h6TLYa5HHZ134jqIvFWqbGjAgMBAAEwCgYI
KoZIzj0EAwIDSQAwRgIhAK1On4L7f28CWaykbgPLiZW7x0MDJEv/9g1do4D79HGb
AiEAnpfKtv22X4M+JJ6GUm8O5bzVBeIZqganh28C2MqlWTY=
-----END CERTIFICATE-----
