Certificate:
    Data:
        Version: 1 (0x0)
        Serial Number:
            17:50:a6:22:ed:61:65:33:26:1b:3f:2e:67:48:0a:bc:55:a2:30:12
        Signature Algorithm: sha1WithRSAEncryption
        Issuer: C=US, ST=CA, L=Santa Clara, O=Real Time Innovations, CN=RTI CA/emailAddress=secure@rti.com
        Validity
            Not Before: May 19 09:31:59 2020 GMT
            Not After : May 19 09:31:59 2021 GMT
        Subject: C=US, ST=CA, O=Real Time Innovations, CN=dtlsexample/emailAddress=me@rti.com
        Subject Public Key Info:
            Public Key Algorithm: rsaEncryption
                RSA Public-Key: (2048 bit)
                Modulus:
                    00:cb:ba:cc:dc:39:c7:6d:8c:2c:9c:43:cb:34:4f:
                    79:57:51:f5:e5:2f:96:01:e0:c1:e2:53:5b:c5:79:
                    ab:b3:31:16:de:a6:4b:33:ff:c8:34:c6:8c:67:9a:
                    38:29:da:bf:e3:d5:9f:e7:20:44:cc:f9:3b:85:68:
                    15:3a:ef:bb:6f:f2:ac:c6:a0:78:5c:c4:0c:ea:5a:
                    35:86:e8:cf:23:bf:4c:5d:5c:63:b9:16:0e:9c:3d:
                    e1:de:61:33:f9:e8:f5:ff:b1:76:47:42:b6:f0:9b:
                    2b:ee:b2:be:b1:a5:23:49:fe:19:c2:e9:48:48:42:
                    98:c7:7b:08:99:24:01:70:71:5c:f5:5b:cf:f5:52:
                    80:65:38:9c:49:f3:c0:05:f0:0b:7f:cc:9c:6e:41:
                    06:a0:26:d7:ec:72:a6:a5:7a:04:28:34:9d:d7:94:
                    7e:bb:d5:30:c8:b3:1d:48:e5:29:3e:08:7f:f5:f9:
                    72:06:66:a3:10:4b:dd:ec:3d:97:8f:46:d3:41:6f:
                    26:4e:e9:06:36:3d:c1:4e:be:6d:96:07:d7:4f:2f:
                    05:1f:79:b4:de:04:79:03:05:b9:ce:78:78:94:8d:
                    22:0a:bd:98:00:bd:eb:be:ee:a0:a2:78:ca:05:fc:
                    f4:6c:53:96:75:98:3c:c3:00:df:4e:e1:a2:4a:03:
                    51:85
                Exponent: 65537 (0x10001)
    Signature Algorithm: sha1WithRSAEncryption
         57:82:55:04:be:a1:aa:f5:e1:9b:eb:1e:a4:0b:f8:9e:43:c4:
         fe:4f:66:3a:30:51:8c:1c:11:71:fd:7f:7e:40:39:6d:fa:5f:
         b6:de:55:fb:42:7a:b9:2a:18:7f:44:dd:2e:02:83:48:94:0c:
         b0:fa:dd:c3:d8:31:f7:9e:da:58:35:1c:3a:f0:8c:89:76:3c:
         25:02:e5:e2:2a:f7:75:2e:04:1a:34:6b:df:8a:d2:78:70:10:
         db:c2:5b:96:a9:78:60:6d:03:6b:ad:ad:65:d2:31:ba:f0:a7:
         49:b9:f0:ac:a7:3c:0e:e2:b8:ae:03:74:a1:0c:5e:b4:bb:3e:
         e4:71:38:7d:ca:1f:a9:c2:15:3a:a3:e4:8e:85:12:07:6d:61:
         3e:ba:f3:a7:aa:21:71:43:06:a3:b2:b7:5e:92:cb:1c:f4:7a:
         af:61:d4:a5:0b:d4:4c:f1:d2:89:7f:4c:b5:b2:cf:04:22:28:
         db:9b:42:06:ed:ff:7a:81:0c:93:e1:a3:af:0d:79:ee:f0:01:
         d0:0f:f8:e5:47:84:a1:82:33:62:a7:bf:17:e7:f4:66:23:ec:
         91:45:5f:f6:18:d1:ad:06:74:d0:86:f2:5d:5a:7c:7e:4e:5d:
         a2:5a:70:26:28:50:b6:36:0b:f1:08:b0:e2:0d:1c:5d:ee:24:
         89:a1:99:53
-----BEGIN CERTIFICATE-----
MIIDczCCAlsCFBdQpiLtYWUzJhs/LmdICrxVojASMA0GCSqGSIb3DQEBBQUAMIGA
MQswCQYDVQQGEwJVUzELMAkGA1UECAwCQ0ExFDASBgNVBAcMC1NhbnRhIENsYXJh
MR4wHAYDVQQKDBVSZWFsIFRpbWUgSW5ub3ZhdGlvbnMxDzANBgNVBAMMBlJUSSBD
QTEdMBsGCSqGSIb3DQEJARYOc2VjdXJlQHJ0aS5jb20wHhcNMjAwNTE5MDkzMTU5
WhcNMjEwNTE5MDkzMTU5WjBrMQswCQYDVQQGEwJVUzELMAkGA1UECAwCQ0ExHjAc
BgNVBAoMFVJlYWwgVGltZSBJbm5vdmF0aW9uczEUMBIGA1UEAwwLZHRsc2V4YW1w
bGUxGTAXBgkqhkiG9w0BCQEWCm1lQHJ0aS5jb20wggEiMA0GCSqGSIb3DQEBAQUA
A4IBDwAwggEKAoIBAQDLuszcOcdtjCycQ8s0T3lXUfXlL5YB4MHiU1vFeauzMRbe
pksz/8g0xoxnmjgp2r/j1Z/nIETM+TuFaBU677tv8qzGoHhcxAzqWjWG6M8jv0xd
XGO5Fg6cPeHeYTP56PX/sXZHQrbwmyvusr6xpSNJ/hnC6UhIQpjHewiZJAFwcVz1
W8/1UoBlOJxJ88AF8At/zJxuQQagJtfscqalegQoNJ3XlH671TDIsx1I5Sk+CH/1
+XIGZqMQS93sPZePRtNBbyZO6QY2PcFOvm2WB9dPLwUfebTeBHkDBbnOeHiUjSIK
vZgAveu+7qCieMoF/PRsU5Z1mDzDAN9O4aJKA1GFAgMBAAEwDQYJKoZIhvcNAQEF
BQADggEBAFeCVQS+oar14ZvrHqQL+J5DxP5PZjowUYwcEXH9f35AOW36X7beVftC
erkqGH9E3S4Cg0iUDLD63cPYMfee2lg1HDrwjIl2PCUC5eIq93UuBBo0a9+K0nhw
ENvCW5apeGBtA2utrWXSMbrwp0m58KynPA7iuK4DdKEMXrS7PuRxOH3KH6nCFTqj
5I6FEgdtYT6686eqIXFDBqOyt16Syxz0eq9h1KUL1Ezx0ol/TLWyzwQiKNubQgbt
/3qBDJPho68Nee7wAdAP+OVHhKGCM2Knvxfn9GYj7JFFX/YY0a0GdNCG8l1afH5O
XaJacCYoULY2C/EIsOINHF3uJImhmVM=
-----END CERTIFICATE-----
-----BEGIN PRIVATE KEY-----
MIIEvgIBADANBgkqhkiG9w0BAQEFAASCBKgwggSkAgEAAoIBAQDLuszcOcdtjCyc
Q8s0T3lXUfXlL5YB4MHiU1vFeauzMRbepksz/8g0xoxnmjgp2r/j1Z/nIETM+TuF
aBU677tv8qzGoHhcxAzqWjWG6M8jv0xdXGO5Fg6cPeHeYTP56PX/sXZHQrbwmyvu
sr6xpSNJ/hnC6UhIQpjHewiZJAFwcVz1W8/1UoBlOJxJ88AF8At/zJxuQQagJtfs
cqalegQoNJ3XlH671TDIsx1I5Sk+CH/1+XIGZqMQS93sPZePRtNBbyZO6QY2PcFO
vm2WB9dPLwUfebTeBHkDBbnOeHiUjSIKvZgAveu+7qCieMoF/PRsU5Z1mDzDAN9O
4aJKA1GFAgMBAAECggEARrVsyLqdBt5x1UKKUnuK582ghI0BiWFSqZS4808JUsYk
493fmAqcmASZUpPqDkzH8PGB8Bv5BRMzn1fClpQCABa/9KhZXgkFWok4rrw6uHN6
s6SPT/vh0kSAEki2W3SJfNdA7/atu9B/bPdIzCs+lj3E/yssVTgYApQnJc+jWDzB
SvITijSugcWiYDAK4bfDGAranRX1Jlugeg4lupxRu4wTsyH67LATgZnXZxJXul5J
D3xalN3bqmBQMJb37fR4Rr1IrZu4wEJOnAMI+XwGNBZdKhjqufTqGeSybqXunXcD
Kvpol5hFtqNN9Pk1JC8jXGUlcb/Xmk8TGrWYYUovgQKBgQD15l/D5lEwULYkJJF+
2BYu4QBYDDSTKlQ89ye5lXBQT0AQ3H2MSDr6bHLSHJ0hjhKIyigyP4PEgFl+j8bS
B3ZJLrT0X3XQUYc07bSoFlgLEaSWs2ysrT3x6AixAhFJV6f4BOLxAeWRYJAsoRpb
0PvHHIY5GosflkCy4bswarEn1QKBgQDUGQIkRo5TliPWgfXhzytE9C1Ghab0B9ry
aTWW6RLQo3mXDSsXpvUrvVG6KCR6hccm+9s4VcVxi99viQrJtPbNhTchCxCMLB+o
YJHI9Zo8vcsQfCTtgcqC4xalfn5malLM8kaRRhmu52Uhuux2vrbbHMpCmrdK71CU
CjDU+LSK8QKBgCZEdszOz/274cyYIEhkKnebLmmFZL0uTjO6puT7u6HT4318QtGN
ABiuveOy7kUljf7Zrw260q/G5aaLi35uCNt0uFZ7cKM9vNPg1kd+Sq9WTI3jWFs7
DrPRz2B0mOoYCRzQ7dxh1i8cnvNDEw4M5NHkv4Ktfc8pm+H6vR3YzL8NAoGBAK+3
6GZVbiUiBp75HNTv5lFCWyBKKn+S4npjX9qfTs88IMhcSI9X61dJiiRIjbBUlSJf
Fsgdh28DCyJEz4M9QhwTehEOMa9v/upo118+24HnXA1UTOPY3AaETYbevanr/J1/
O6ewBCc73jWLv8zBRI1T1N5JgAG9M2zy5HINesaBAoGBAPA2tXLXVYZPwiRQAAaD
aEuKQilX0kinavnoG/s7ukq/U9XrTMu9sNrwfCBfEdbmdTBTIi37MH5jSgDKvZ5O
2bIW++MvVpOh5+4DRlhJPqjr8vsN1cHM7JwGtrl/2FNgSc034T+D/9S5tFIlQ00O
/5uNumDsqblKBuVLu5mZqHG1
-----END PRIVATE KEY-----
