Certificate:
    Data:
        Version: 1 (0x0)
        Serial Number:
            62:00:13:3d:79:45:b3:5a:b1:99:a1:4c:bf:56:1e:2e:00:7c:cd:18
        Signature Algorithm: NULL
        Issuer: C = US, ST = CA, L = Santa Clara, O = Real Time Innovations, emailAddress = ecdsa01ParticipantA@rti.com, CN = Lightweight Participant A
        Validity
            Not Before: Nov  9 17:40:40 2023 GMT
            Not After : Nov  8 17:40:40 2025 GMT
        Subject: C = US, ST = CA, L = Santa Clara, O = Real Time Innovations, emailAddress = ecdsa01ParticipantA@rti.com, CN = Lightweight Participant A
        Subject Public Key Info:
            Public Key Algorithm: rsaEncryption
                RSA Public-Key: (2048 bit)
                Modulus:
                    00:c7:9c:70:e2:d2:85:33:55:7a:ac:e1:1c:fd:c8:
                    da:a3:11:40:a7:55:6c:66:c8:c3:b1:fe:aa:83:0d:
                    96:23:30:18:7b:ec:4b:1a:fd:7d:1d:35:84:93:86:
                    a8:16:a8:d0:87:8a:f2:6d:19:25:ae:81:29:37:6a:
                    2b:f5:41:72:dc:8a:a2:ed:0f:3d:d8:75:38:e7:32:
                    3a:1c:19:40:5b:97:41:a8:1d:9a:dd:fe:7d:5d:14:
                    a6:c8:09:28:d6:05:a6:4f:71:4f:e6:59:f2:b6:04:
                    b4:0f:da:c9:44:85:80:35:46:6c:d3:a3:80:8d:55:
                    d0:60:66:c0:97:e6:cf:b2:fe:fc:06:8b:c9:a2:e6:
                    10:bd:ba:2b:38:49:3f:08:94:4f:51:4f:0c:92:0a:
                    4c:f8:70:68:a0:dd:3f:ed:6c:ee:b3:6a:89:3d:18:
                    d5:24:1f:dd:6e:7a:5d:bb:66:ac:28:08:67:8c:90:
                    f4:c6:7f:c9:3f:90:7b:83:23:50:e7:c6:a6:ad:d5:
                    3d:f0:98:9a:f7:ba:00:08:32:f4:4c:3d:1e:2e:79:
                    1c:d9:5e:aa:bc:3e:a5:d4:a2:96:77:f9:fc:c8:4c:
                    cb:6d:12:6c:86:d0:5c:12:1f:fe:e2:f8:a9:7a:87:
                    4f:16:d6:58:4b:f6:ae:07:7e:d6:6e:c3:fd:4e:ba:
                    20:17
                Exponent: 65537 (0x10001)
    Signature Algorithm: NULL
-----BEGIN CERTIFICATE-----
MIIC7zCCApYCAQQwCgYIKoZIzj0EAwIwgZsxCzAJBgNVBAYTAlVTMQswCQYDVQQI
DAJDQTEUMBIGA1UEBwwLU2FudGEgQ2xhcmExHjAcBgNVBAoMFVJlYWwgVGltZSBJ
bm5vdmF0aW9uczEjMCEGA1UEAwwaUlRJIEVDRFNBMDEgKHAyNTYpIFJPT1QgQ0Ex
JDAiBgkqhkiG9w0BCQEWFWVjZHNhMDFSb290Q2FAcnRpLmNvbTAeFw0yMzExMDkx
NzQwNDBaFw0yNTExMDgxNzQwNDBaMIGgMQswCQYDVQQGEwJVUzELMAkGA1UECAwC
Q0ExFDASBgNVBAcMC1NhbnRhIENsYXJhMR4wHAYDVQQKDBVSZWFsIFRpbWUgSW5u
b3ZhdGlvbnMxKjAoBgkqhkiG9w0BCQEWG2VjZHNhMDFQYXJ0aWNpcGFudEFAcnRp
LmNvbTEiMCAGA1UEAwwZTGlnaHR3ZWlnaHQgUGFydGljaXBhbnQgQTCCASIwDQYJ
KoZIhvcNAQEBBQADggEPADCCAQoCggEBAMeccOLShTNVeqzhHP3I2qMRQKdVbGbI
w7H+qoMNliMwGHvsSxr9fR01hJOGqBao0IeK8m0ZJa6BKTdqK/VBctyKou0PPdh1
OOcyOhwZQFuXQagdmt3+fV0UpsgJKNYFpk9xT+ZZ8rYEtA/ayUSFgDVGbNOjgI1V
0GBmwJfmz7L+/AaLyaLmEL26KzhJPwiUT1FPDJIKTPhwaKDdP+1s7rNqiT0Y1SQf
3W56XbtmrCgIZ4yQ9MZ/yT+Qe4MjUOfGpq3VPfCYmve6AAgy9Ew9Hi55HNleqrw+
pdSilnf5/MhMy20SbIbQXBIf/uL4qXqHTxbWWEv2rgd+1m7D/U66IBcCAwEAATAK
BggqhkjOPQQDAgNHADBEAiArySpAQjRyA0aZXEs0m3Yujc629HbZKQNksGzY4ezc
rAIgPCkr/yc2/TNp+mN0DhOX1mF9SdcGHPHrQ9/9gluqloY=
-----END CERTIFICATE-----
