Certificate:
    Data:
        Version: 1 (0x0)
        Serial Number:
            0d:fc:6e:dc:93:e7:c5:67:44:69:20:10:ca:c2:2d:50:38:d6:45:da
        Signature Algorithm: sha256WithRSAEncryption
        Issuer: C = US, ST = CA, L = Santa Clara, O = Real Time Innovations, CN = RTI CA, emailAddress = secure@rti.com
        Validity
            Not Before: Jan 29 23:34:29 2021 GMT
            Not After : Jan 28 23:34:29 2026 GMT
        Subject: C = US, ST = CA, L = Santa Clara, O = Real Time Innovations, CN = RTI CA, emailAddress = secure@rti.com
        Subject Public Key Info:
            Public Key Algorithm: rsaEncryption
                RSA Public-Key: (2048 bit)
                Modulus:
                    00:e5:82:8f:81:39:b4:53:1b:2e:0d:e1:91:a6:c4:
                    7c:fd:00:31:7b:7d:5e:4e:d0:7f:c1:b9:39:3d:8e:
                    fe:24:1f:be:4b:e9:a3:21:eb:b6:8a:74:04:3a:ab:
                    45:b2:1b:2c:12:07:f1:b7:d3:42:54:66:e6:54:6d:
                    cc:eb:fe:55:84:2e:c3:98:3f:d6:99:80:42:c6:ee:
                    bb:fc:64:1d:78:84:9e:0d:24:51:5f:52:da:1c:15:
                    15:d7:3c:65:03:83:34:f0:26:8e:bc:32:5f:b6:61:
                    96:b9:4d:e0:cb:b0:59:7c:41:09:23:0d:3c:e0:8b:
                    2d:4f:7b:c8:02:df:cf:0e:c9:c0:c0:31:d1:9c:52:
                    9f:14:75:d0:91:f4:d9:82:cd:f7:cd:c9:2a:59:cd:
                    f8:10:e4:6a:f7:e5:f9:3d:c1:3e:98:36:c4:bb:5c:
                    a3:92:a7:4c:d3:d4:e3:c2:0e:0f:01:63:8f:e3:6b:
                    63:f2:94:da:74:9d:4f:3f:0d:a5:87:c0:fc:a9:28:
                    29:29:d1:59:bc:5e:ec:e0:c2:91:08:eb:19:29:18:
                    35:18:1f:b9:fb:dd:a1:fe:01:f5:02:23:89:20:66:
                    7f:8e:91:14:e3:84:73:37:e2:df:bf:00:53:31:e3:
                    60:f5:18:05:46:30:82:26:e1:e6:00:51:92:e7:81:
                    0a:57
                Exponent: 65537 (0x10001)
    Signature Algorithm: sha256WithRSAEncryption
         41:e8:da:da:aa:c9:cd:5b:65:80:a7:9a:5b:16:7b:93:de:26:
         40:f8:7e:2b:79:e9:57:61:97:de:ec:2c:98:0b:73:53:c0:3f:
         7d:3f:68:00:ee:82:af:a9:2b:a1:c5:29:59:6d:30:7a:a3:93:
         9f:53:80:7d:73:0e:d6:47:8f:30:69:25:7a:65:54:17:ae:9f:
         ac:51:a6:5a:24:38:3e:a6:2c:5d:ae:00:0c:95:68:02:df:c1:
         82:80:e0:b4:fb:ec:00:33:ed:a9:71:29:e7:52:df:db:21:3c:
         fb:2a:b8:a6:16:c0:a8:b3:93:4e:7a:c3:5b:1b:d3:98:41:69:
         74:58:8c:8d:70:aa:c3:22:79:70:0d:14:cc:b1:67:c9:9e:e9:
         8b:f3:cc:c0:e2:b1:19:91:25:16:0c:be:6c:4a:e8:e0:6b:d3:
         85:dd:bf:d6:9d:a4:61:6f:68:91:70:1d:e8:f8:1e:81:77:86:
         99:4b:f4:5f:a7:20:62:38:c7:e3:46:a1:23:4b:06:3d:1a:a8:
         31:23:9e:1e:44:0a:3a:fc:f5:54:63:67:8f:38:1e:c9:68:74:
         b7:02:46:e1:f5:6b:e3:bd:f7:fa:6c:54:75:dc:4f:ce:f3:fc:
         c6:d0:1b:1d:e3:ee:32:97:73:3e:87:bc:4d:0b:66:dc:fe:14:
         7f:3d:9c:d9
-----BEGIN CERTIFICATE-----
MIIDiTCCAnECFA38btyT58VnRGkgEMrCLVA41kXaMA0GCSqGSIb3DQEBCwUAMIGA
MQswCQYDVQQGEwJVUzELMAkGA1UECAwCQ0ExFDASBgNVBAcMC1NhbnRhIENsYXJh
MR4wHAYDVQQKDBVSZWFsIFRpbWUgSW5ub3ZhdGlvbnMxDzANBgNVBAMMBlJUSSBD
QTEdMBsGCSqGSIb3DQEJARYOc2VjdXJlQHJ0aS5jb20wHhcNMjEwMTI5MjMzNDI5
WhcNMjYwMTI4MjMzNDI5WjCBgDELMAkGA1UEBhMCVVMxCzAJBgNVBAgMAkNBMRQw
EgYDVQQHDAtTYW50YSBDbGFyYTEeMBwGA1UECgwVUmVhbCBUaW1lIElubm92YXRp
b25zMQ8wDQYDVQQDDAZSVEkgQ0ExHTAbBgkqhkiG9w0BCQEWDnNlY3VyZUBydGku
Y29tMIIBIjANBgkqhkiG9w0BAQEFAAOCAQ8AMIIBCgKCAQEA5YKPgTm0UxsuDeGR
psR8/QAxe31eTtB/wbk5PY7+JB++S+mjIeu2inQEOqtFshssEgfxt9NCVGbmVG3M
6/5VhC7DmD/WmYBCxu67/GQdeISeDSRRX1LaHBUV1zxlA4M08CaOvDJftmGWuU3g
y7BZfEEJIw084IstT3vIAt/PDsnAwDHRnFKfFHXQkfTZgs33zckqWc34EORq9+X5
PcE+mDbEu1yjkqdM09Tjwg4PAWOP42tj8pTadJ1PPw2lh8D8qSgpKdFZvF7s4MKR
COsZKRg1GB+5+92h/gH1AiOJIGZ/jpEU44RzN+LfvwBTMeNg9RgFRjCCJuHmAFGS
54EKVwIDAQABMA0GCSqGSIb3DQEBCwUAA4IBAQBB6NraqsnNW2WAp5pbFnuT3iZA
+H4reelXYZfe7CyYC3NTwD99P2gA7oKvqSuhxSlZbTB6o5OfU4B9cw7WR48waSV6
ZVQXrp+sUaZaJDg+pixdrgAMlWgC38GCgOC0++wAM+2pcSnnUt/bITz7KrimFsCo
s5NOesNbG9OYQWl0WIyNcKrDInlwDRTMsWfJnumL88zA4rEZkSUWDL5sSujga9OF
3b/WnaRhb2iRcB3o+B6Bd4aZS/RfpyBiOMfjRqEjSwY9GqgxI54eRAo6/PVUY2eP
OB7JaHS3Akbh9Wvjvff6bFR13E/O8/zG0Bsd4+4yl3M+h7xNC2bc/hR/PZzZ
-----END CERTIFICATE-----
