Certificate:
    Data:
        Version: 1 (0x0)
        Serial Number:
            4e:3e:86:50:69:3c:68:1e:ac:9e:d3:7a:9b:7d:82:71:f4:28:d8:2c
        Signature Algorithm: sha256WithRSAEncryption
        Issuer: C = US, ST = CA, L = Santa Clara, O = Real Time Innovations, CN = RTI RSA01 ROOT CA, emailAddress = rsa01RootCa@rti.com
        Validity
            Not Before: Jul  1 07:55:31 2023 GMT
            Not After : Jun 29 07:55:31 2028 GMT
        Subject: C = US, ST = CA, L = Santa Clara, O = Real Time Innovations, CN = RTI RSA01 ROOT CA, emailAddress = rsa01RootCa@rti.com
        Subject Public Key Info:
            Public Key Algorithm: rsaEncryption
                Public-Key: (2048 bit)
                Modulus:
                    00:f0:2f:16:6e:45:d8:0d:6b:ba:c4:db:65:28:dd:
                    46:48:c2:77:d1:c6:6d:05:9b:23:7c:0a:3f:bc:da:
                    c0:d9:83:da:24:84:98:46:53:b8:b6:31:71:4b:c0:
                    d4:60:af:58:0c:3e:31:de:56:84:12:4a:e9:6d:28:
                    4f:9f:cd:76:d6:d9:84:57:3e:91:fb:2f:8b:d3:13:
                    99:3d:d1:bd:90:88:92:31:2f:c1:9c:69:02:9e:fd:
                    57:49:b4:c5:e1:6f:45:c7:92:40:8d:bf:c1:4a:2c:
                    fb:f5:5e:c3:90:da:8a:f2:8a:ff:8e:7f:e2:cc:e5:
                    43:70:cd:94:dd:3b:a1:a2:08:71:cc:c6:36:e3:22:
                    e7:31:09:bf:e7:97:d8:50:05:98:c3:03:9d:a0:1e:
                    cd:6f:15:41:85:94:a5:7f:69:5c:53:6e:c4:48:d1:
                    37:30:52:0a:e1:dc:e9:7e:8e:da:28:28:fb:3a:d7:
                    40:9e:fb:ad:a4:3b:67:75:1b:95:16:4b:47:67:26:
                    59:8e:7a:ef:65:3c:38:4b:aa:1c:00:ca:21:5d:53:
                    ae:76:e9:6e:4d:ad:cd:37:47:87:77:6e:22:42:0f:
                    f1:99:c9:f6:fa:8d:8c:11:a7:bb:41:f4:12:60:47:
                    ba:02:2a:71:cf:69:46:9b:34:65:31:d8:90:7b:d5:
                    46:41
                Exponent: 65537 (0x10001)
    Signature Algorithm: sha256WithRSAEncryption
    Signature Value:
        0d:6b:85:dc:75:88:4f:12:e1:d7:32:46:8d:4e:12:21:21:ca:
        c9:3d:a4:14:1c:13:66:c5:5a:b0:af:ac:29:4a:35:06:ad:03:
        81:77:cb:c1:6c:12:25:f2:4e:a2:7a:f6:33:a4:0e:6d:1c:5a:
        47:f2:ed:13:29:26:ac:07:0f:7c:ec:3b:90:6f:06:29:22:0e:
        98:1a:bc:4c:fd:3f:b3:8b:96:26:9a:0d:3d:a2:28:9d:73:cc:
        6a:d2:5e:73:5b:33:ec:f2:36:e8:93:ff:e2:e7:00:0c:5e:f9:
        3b:dc:68:4b:90:91:f0:11:91:34:04:eb:90:36:45:56:f3:76:
        32:ca:87:01:20:80:18:d2:f5:57:84:23:55:46:d6:f6:79:aa:
        30:c0:8e:68:a0:6b:c9:fd:5c:f8:69:ac:11:6c:85:8a:bf:77:
        d2:15:52:6e:9c:de:f6:3d:fa:1f:84:41:69:11:64:10:fc:fb:
        bd:3d:ff:8f:f7:cd:f6:8a:41:b0:62:4b:3d:b1:a5:56:a4:35:
        17:e3:e6:d1:95:c4:89:cd:c0:00:fe:c9:29:0a:6e:88:b3:2c:
        7d:59:c6:8c:a9:a2:f8:9d:bd:e8:9a:3b:1a:31:4d:b8:ba:19:
        82:d4:52:39:4e:11:6c:4b:e2:63:0c:2a:c6:d6:d1:cb:ec:a8:
        7d:2b:3e:f5
-----BEGIN CERTIFICATE-----
MIIDqTCCApECFE4+hlBpPGgerJ7Tept9gnH0KNgsMA0GCSqGSIb3DQEBCwUAMIGQ
MQswCQYDVQQGEwJVUzELMAkGA1UECAwCQ0ExFDASBgNVBAcMC1NhbnRhIENsYXJh
MR4wHAYDVQQKDBVSZWFsIFRpbWUgSW5ub3ZhdGlvbnMxGjAYBgNVBAMMEVJUSSBS
U0EwMSBST09UIENBMSIwIAYJKoZIhvcNAQkBFhNyc2EwMVJvb3RDYUBydGkuY29t
MB4XDTIzMDcwMTA3NTUzMVoXDTI4MDYyOTA3NTUzMVowgZAxCzAJBgNVBAYTAlVT
MQswCQYDVQQIDAJDQTEUMBIGA1UEBwwLU2FudGEgQ2xhcmExHjAcBgNVBAoMFVJl
YWwgVGltZSBJbm5vdmF0aW9uczEaMBgGA1UEAwwRUlRJIFJTQTAxIFJPT1QgQ0Ex
IjAgBgkqhkiG9w0BCQEWE3JzYTAxUm9vdENhQHJ0aS5jb20wggEiMA0GCSqGSIb3
DQEBAQUAA4IBDwAwggEKAoIBAQDwLxZuRdgNa7rE22Uo3UZIwnfRxm0FmyN8Cj+8
2sDZg9okhJhGU7i2MXFLwNRgr1gMPjHeVoQSSultKE+fzXbW2YRXPpH7L4vTE5k9
0b2QiJIxL8GcaQKe/VdJtMXhb0XHkkCNv8FKLPv1XsOQ2oryiv+Of+LM5UNwzZTd
O6GiCHHMxjbjIucxCb/nl9hQBZjDA52gHs1vFUGFlKV/aVxTbsRI0TcwUgrh3Ol+
jtooKPs610Ce+62kO2d1G5UWS0dnJlmOeu9lPDhLqhwAyiFdU6526W5Nrc03R4d3
biJCD/GZyfb6jYwRp7tB9BJgR7oCKnHPaUabNGUx2JB71UZBAgMBAAEwDQYJKoZI
hvcNAQELBQADggEBAA1rhdx1iE8S4dcyRo1OEiEhysk9pBQcE2bFWrCvrClKNQat
A4F3y8FsEiXyTqJ69jOkDm0cWkfy7RMpJqwHD3zsO5BvBikiDpgavEz9P7OLliaa
DT2iKJ1zzGrSXnNbM+zyNuiT/+LnAAxe+TvcaEuQkfARkTQE65A2RVbzdjLKhwEg
gBjS9VeEI1VG1vZ5qjDAjmiga8n9XPhprBFshYq/d9IVUm6c3vY9+h+EQWkRZBD8
+709/4/3zfaKQbBiSz2xpVakNRfj5tGVxInNwAD+ySkKboizLH1Zxoypovidveia
OxoxTbi6GYLUUjlOEWxL4mMMKsbW0cvsqH0rPvU=
-----END CERTIFICATE-----
