Certificate:
    Data:
        Version: 1 (0x0)
        Serial Number: 2 (0x2)
    Signature Algorithm: sha256WithRSAEncryption
        Issuer: C=US, ST=CA, L=Santa Clara, O=Real Time Innovations, CN=RTI CA/emailAddress=secure@rti.com
        Validity
            Not Before: Dec 30 15:29:44 2019 GMT
            Not After : Dec 29 15:29:44 2020 GMT
        Subject: C=US, ST=CA, O=Real Time Innovations, CN=rsexample/emailAddress=D2_DP@rti.com
        Subject Public Key Info:
            Public Key Algorithm: rsaEncryption
                Public-Key: (2048 bit)
                Modulus:
                    00:d3:d5:f3:1e:f0:30:3d:fc:62:fe:84:d4:ef:9c:
                    a2:5f:0e:85:c6:03:3c:df:ad:6d:4f:63:6f:15:aa:
                    18:0f:3f:66:d7:11:38:70:0a:58:53:63:4c:3c:6d:
                    77:2a:9d:ca:4b:d6:1a:83:97:58:d9:5c:75:f2:3b:
                    d9:45:7b:e7:20:52:bd:7e:42:72:a5:fb:6b:90:63:
                    ef:13:53:ed:76:4a:a3:ce:1c:80:94:9c:9d:c2:02:
                    31:69:56:a8:35:17:96:fb:bf:ad:64:94:32:d8:46:
                    e7:9e:4c:4c:c5:1b:0a:e9:6d:02:4b:0c:42:3c:77:
                    f0:a2:de:7f:16:87:ad:d2:2b:0d:82:3a:e2:ca:5a:
                    ac:cf:d8:c8:27:d6:c6:79:a9:2f:35:5f:4f:29:f4:
                    22:7d:8f:11:c2:c1:2d:9c:ec:10:d7:fb:b2:91:48:
                    7c:04:38:84:ed:b2:db:80:16:a5:c5:fc:23:47:4c:
                    14:98:38:51:61:a0:69:4e:f1:5d:87:76:1b:b1:e3:
                    54:28:cd:60:ad:57:dd:13:f5:72:79:6b:e5:be:ca:
                    56:af:ca:7f:d5:63:bf:db:53:6a:b5:f7:1a:42:2f:
                    a1:49:f3:a3:a8:04:f3:2b:fb:70:41:5f:5a:2d:74:
                    cc:73:37:c5:33:b4:fa:e1:3c:cf:26:18:68:8f:57:
                    d6:25
                Exponent: 65537 (0x10001)
    Signature Algorithm: sha256WithRSAEncryption
         38:cc:a5:0a:08:a0:ac:c1:b8:55:23:0c:26:fd:a3:6d:37:fa:
         52:72:87:a1:b7:8b:b0:9a:a0:c8:98:05:94:d8:5f:b5:3e:46:
         57:12:af:80:dd:94:a9:0e:4a:1e:c5:f4:4f:9a:81:72:8b:02:
         d4:91:a3:1c:7c:14:1f:ac:f9:87:c8:75:e5:4f:62:95:e5:c8:
         1d:e3:74:f9:f9:37:db:18:ab:e7:2b:7e:20:fe:97:aa:7a:97:
         ef:9c:84:85:a3:58:eb:ce:2b:69:79:9c:84:c5:82:e3:93:d6:
         67:01:09:c1:da:5e:74:ef:3d:82:06:c7:99:db:5c:af:11:8c:
         d9:17:34:a3:db:f4:dc:84:3b:aa:7b:5b:2a:ba:fa:43:04:ba:
         a5:17:82:35:41:9f:10:67:87:7e:28:e1:54:e5:a3:e4:96:24:
         a9:7d:1f:49:dd:1e:3c:e2:fb:3a:07:92:f8:29:56:11:3e:d4:
         3c:59:bf:88:78:b7:84:57:43:02:d7:07:6a:52:06:13:e0:c4:
         d0:ff:fe:02:81:75:04:d9:f9:50:10:f9:a8:f4:c8:27:ac:7d:
         a9:0c:40:0d:78:0f:ac:40:0b:c3:f6:56:1d:9d:a3:d8:39:fd:
         73:be:2f:b1:ef:ef:ce:2c:6a:b3:7c:62:4b:0c:0c:55:17:c6:
         71:64:31:ef
-----BEGIN CERTIFICATE-----
MIIDYTCCAkkCAQIwDQYJKoZIhvcNAQELBQAwgYAxCzAJBgNVBAYTAlVTMQswCQYD
VQQIDAJDQTEUMBIGA1UEBwwLU2FudGEgQ2xhcmExHjAcBgNVBAoMFVJlYWwgVGlt
ZSBJbm5vdmF0aW9uczEPMA0GA1UEAwwGUlRJIENBMR0wGwYJKoZIhvcNAQkBFg5z
ZWN1cmVAcnRpLmNvbTAeFw0xOTEyMzAxNTI5NDRaFw0yMDEyMjkxNTI5NDRaMGwx
CzAJBgNVBAYTAlVTMQswCQYDVQQIDAJDQTEeMBwGA1UECgwVUmVhbCBUaW1lIElu
bm92YXRpb25zMRIwEAYDVQQDDAlyc2V4YW1wbGUxHDAaBgkqhkiG9w0BCQEWDUQy
X0RQQHJ0aS5jb20wggEiMA0GCSqGSIb3DQEBAQUAA4IBDwAwggEKAoIBAQDT1fMe
8DA9/GL+hNTvnKJfDoXGAzzfrW1PY28VqhgPP2bXEThwClhTY0w8bXcqncpL1hqD
l1jZXHXyO9lFe+cgUr1+QnKl+2uQY+8TU+12SqPOHICUnJ3CAjFpVqg1F5b7v61k
lDLYRueeTEzFGwrpbQJLDEI8d/Ci3n8Wh63SKw2COuLKWqzP2Mgn1sZ5qS81X08p
9CJ9jxHCwS2c7BDX+7KRSHwEOITtstuAFqXF/CNHTBSYOFFhoGlO8V2Hdhux41Qo
zWCtV90T9XJ5a+W+ylavyn/VY7/bU2q19xpCL6FJ86OoBPMr+3BBX1otdMxzN8Uz
tPrhPM8mGGiPV9YlAgMBAAEwDQYJKoZIhvcNAQELBQADggEBADjMpQoIoKzBuFUj
DCb9o203+lJyh6G3i7CaoMiYBZTYX7U+RlcSr4DdlKkOSh7F9E+agXKLAtSRoxx8
FB+s+YfIdeVPYpXlyB3jdPn5N9sYq+crfiD+l6p6l++chIWjWOvOK2l5nITFguOT
1mcBCcHaXnTvPYIGx5nbXK8RjNkXNKPb9NyEO6p7Wyq6+kMEuqUXgjVBnxBnh34o
4VTlo+SWJKl9H0ndHjzi+zoHkvgpVhE+1DxZv4h4t4RXQwLXB2pSBhPgxND//gKB
dQTZ+VAQ+aj0yCesfakMQA14D6xAC8P2Vh2do9g5/XO+L7Hv784sarN8YksMDFUX
xnFkMe8=
-----END CERTIFICATE-----
