Certificate:
    Data:
        Version: 1 (0x0)
        Serial Number: 2 (0x2)
    Signature Algorithm: dsa_with_SHA256
        Issuer: C=US, ST=CA, L=Santa Clara, O=Real Time Innovations, CN=RTI CA/emailAddress=secure@rti.com
        Validity
            Not Before: Dec 30 15:30:34 2019 GMT
            Not After : Dec 29 15:30:34 2020 GMT
        Subject: C=US, ST=CA, O=Real Time Innovations, CN=rsexampledsa/emailAddress=D2_DPdsa@rti.com
        Subject Public Key Info:
            Public Key Algorithm: dsaEncryption
                pub: 
                    00:9c:fd:af:a9:3b:2f:a9:54:0e:b0:b1:46:9e:4b:
                    04:b8:a1:21:0e:fb:03:2a:3d:33:19:65:d1:13:30:
                    da:01:2a:ef:57:34:a2:7a:8b:99:d5:e1:66:14:82:
                    25:6c:0b:d0:63:7c:39:c8:bd:3a:58:23:fa:65:58:
                    8d:c4:f5:d6:1f:34:c6:f5:d5:c2:13:56:be:0e:3e:
                    f0:89:15:02:b5:c0:82:d1:b1:3b:c1:c5:8c:a7:8e:
                    35:86:1a:51:a3:49:71:3a:99:ac:0b:c3:68:af:b9:
                    ed:8b:40:38:ce:1b:50:f4:de:27:62:c8:52:f9:0b:
                    18:59:c5:50:02:22:62:b2:21:89:eb:44:19:e1:bc:
                    b8:97:eb:3d:6b:7b:bf:c0:d0:d7:eb:7d:5c:8c:62:
                    4d:da:e3:b9:b4:35:be:76:1a:cd:5e:5d:cf:13:73:
                    15:b0:cb:5f:e6:98:85:5c:e6:a1:f5:fe:a6:5c:22:
                    b6:5e:c6:4a:32:17:76:71:20:45:39:22:53:4b:86:
                    9d:8a:e7:53:f7:d9:11:14:3a:17:1c:90:0a:58:15:
                    6a:49:01:b2:35:df:8e:57:23:87:ec:0e:b8:1c:29:
                    6d:3f:eb:2a:fe:1c:60:04:bb:48:5c:ef:b1:4c:ed:
                    e3:08:20:e8:ab:93:b9:fd:f3:25:cc:8a:e4:9c:db:
                    7f:47
                P:   
                    00:e7:e9:7e:fd:02:04:ea:13:47:30:ad:50:c1:32:
                    75:fc:6a:ab:df:08:a7:bc:d1:36:b2:d2:d0:41:57:
                    26:36:82:61:7b:56:e7:ea:78:be:39:4e:5e:a1:9b:
                    4b:2d:0d:1a:79:63:f8:ab:e8:c2:8a:ea:fb:16:05:
                    c5:db:8c:b6:79:b5:ae:3c:8d:db:c2:a0:e0:c8:94:
                    65:f1:4a:1c:ae:12:51:95:b9:46:58:f8:2a:00:8d:
                    b3:d3:29:05:c0:a3:48:60:36:4f:e6:0b:a6:84:0c:
                    a4:a7:76:a5:40:37:db:4a:62:96:bb:9c:23:a0:67:
                    16:a6:c5:1c:7a:eb:34:cf:b3:96:d0:bb:7b:1e:e4:
                    98:81:5e:98:9d:b7:23:f0:ff:b1:7a:ea:98:b4:e5:
                    18:18:b7:7c:94:4f:12:24:01:4d:45:26:37:aa:a1:
                    36:23:3e:9c:37:72:ea:02:2a:9b:b1:66:ad:0d:41:
                    ad:51:a1:21:9c:f3:a4:d1:ee:dd:be:2b:82:59:05:
                    0a:65:15:a4:04:0f:f1:a0:5b:e0:13:98:f2:e7:40:
                    92:b9:fd:da:28:83:23:c2:47:25:12:7e:cd:be:75:
                    6f:87:0f:1f:dc:29:28:46:10:1d:ef:90:a6:09:de:
                    fe:c7:a2:ff:7e:92:d6:92:ad:5f:62:5b:77:64:7a:
                    f8:9f
                Q:   
                    00:ab:ad:3e:fe:45:91:36:da:dc:a2:2c:95:10:71:
                    c5:b7:e2:c2:51:50:52:42:30:76:62:29:ce:19:6c:
                    25:e3:5b
                G:   
                    11:f0:38:77:a4:7d:4a:e2:bb:04:41:8e:bf:c2:6e:
                    ad:cc:19:66:3c:96:1d:7c:9e:54:87:ac:c1:a2:8a:
                    39:e7:4b:af:23:3f:3a:51:e2:b8:62:4a:d3:e4:98:
                    50:bc:aa:6f:43:12:a2:f7:46:7e:34:39:92:53:11:
                    3e:e4:3f:81:5a:a6:1a:22:e8:98:bb:6b:65:74:7a:
                    af:bc:62:41:1f:6f:3c:1e:a8:3e:4d:1b:d7:24:21:
                    f1:9f:29:d5:5f:c9:ff:2b:12:40:3e:cd:ab:53:ba:
                    fe:f8:ef:3f:46:05:64:20:93:2b:37:8d:bd:c7:fd:
                    25:fa:cc:8e:40:e3:56:21:c8:79:4f:0c:64:27:ca:
                    20:ad:49:61:14:3d:75:7c:11:31:3c:a0:14:7d:22:
                    6b:c0:ee:bf:38:67:52:a2:0c:8d:a6:7f:13:a1:c4:
                    c3:13:2e:c4:0d:c1:9c:5f:43:ce:ad:4f:3c:a8:cb:
                    95:11:1a:26:da:4d:c1:aa:b0:05:c5:b3:2e:7d:9e:
                    9c:27:4e:4b:0a:7e:8e:f5:ae:6c:b3:48:74:36:f9:
                    73:11:20:2f:5d:d7:cd:fe:75:36:cf:fc:96:03:a3:
                    39:37:57:b8:35:43:e5:2f:a6:fb:63:56:a7:68:7c:
                    13:0d:d6:2f:52:4f:07:d8:45:7a:59:57:a6:73:3d:
                    e9
    Signature Algorithm: dsa_with_SHA256
         r:   
             32:61:e3:cf:74:d5:cb:27:a7:f6:70:16:aa:b9:ee:
             81:1b:d9:2c:97:2b:c2:12:11:a6:87:7d:7a:49:d0:
             40:60
         s:   
             00:82:fb:a3:29:36:86:4d:ec:ae:52:64:36:88:cd:
             24:24:6e:2f:89:da:41:35:82:89:00:04:f1:d6:d5:
             89:eb:56
-----BEGIN CERTIFICATE-----
MIIEzTCCBHICAQIwCwYJYIZIAWUDBAMCMIGAMQswCQYDVQQGEwJVUzELMAkGA1UE
CAwCQ0ExFDASBgNVBAcMC1NhbnRhIENsYXJhMR4wHAYDVQQKDBVSZWFsIFRpbWUg
SW5ub3ZhdGlvbnMxDzANBgNVBAMMBlJUSSBDQTEdMBsGCSqGSIb3DQEJARYOc2Vj
dXJlQHJ0aS5jb20wHhcNMTkxMjMwMTUzMDM0WhcNMjAxMjI5MTUzMDM0WjByMQsw
CQYDVQQGEwJVUzELMAkGA1UECAwCQ0ExHjAcBgNVBAoMFVJlYWwgVGltZSBJbm5v
dmF0aW9uczEVMBMGA1UEAwwMcnNleGFtcGxlZHNhMR8wHQYJKoZIhvcNAQkBFhBE
Ml9EUGRzYUBydGkuY29tMIIDRzCCAjkGByqGSM44BAEwggIsAoIBAQDn6X79AgTq
E0cwrVDBMnX8aqvfCKe80Tay0tBBVyY2gmF7VufqeL45Tl6hm0stDRp5Y/ir6MKK
6vsWBcXbjLZ5ta48jdvCoODIlGXxShyuElGVuUZY+CoAjbPTKQXAo0hgNk/mC6aE
DKSndqVAN9tKYpa7nCOgZxamxRx66zTPs5bQu3se5JiBXpidtyPw/7F66pi05RgY
t3yUTxIkAU1FJjeqoTYjPpw3cuoCKpuxZq0NQa1RoSGc86TR7t2+K4JZBQplFaQE
D/GgW+ATmPLnQJK5/doogyPCRyUSfs2+dW+HDx/cKShGEB3vkKYJ3v7Hov9+ktaS
rV9iW3dkevifAiEAq60+/kWRNtrcoiyVEHHFt+LCUVBSQjB2YinOGWwl41sCggEA
EfA4d6R9SuK7BEGOv8JurcwZZjyWHXyeVIeswaKKOedLryM/OlHiuGJK0+SYULyq
b0MSovdGfjQ5klMRPuQ/gVqmGiLomLtrZXR6r7xiQR9vPB6oPk0b1yQh8Z8p1V/J
/ysSQD7Nq1O6/vjvP0YFZCCTKzeNvcf9JfrMjkDjViHIeU8MZCfKIK1JYRQ9dXwR
MTygFH0ia8DuvzhnUqIMjaZ/E6HEwxMuxA3BnF9Dzq1PPKjLlREaJtpNwaqwBcWz
Ln2enCdOSwp+jvWubLNIdDb5cxEgL13Xzf51Ns/8lgOjOTdXuDVD5S+m+2NWp2h8
Ew3WL1JPB9hFellXpnM96QOCAQYAAoIBAQCc/a+pOy+pVA6wsUaeSwS4oSEO+wMq
PTMZZdETMNoBKu9XNKJ6i5nV4WYUgiVsC9BjfDnIvTpYI/plWI3E9dYfNMb11cIT
Vr4OPvCJFQK1wILRsTvBxYynjjWGGlGjSXE6mawLw2ivue2LQDjOG1D03idiyFL5
CxhZxVACImKyIYnrRBnhvLiX6z1re7/A0NfrfVyMYk3a47m0Nb52Gs1eXc8TcxWw
y1/mmIVc5qH1/qZcIrZexkoyF3ZxIEU5IlNLhp2K51P32REUOhcckApYFWpJAbI1
345XI4fsDrgcKW0/6yr+HGAEu0hc77FM7eMIIOirk7n98yXMiuSc239HMAsGCWCG
SAFlAwQDAgNIADBFAiAyYePPdNXLJ6f2cBaque6BG9kslyvCEhGmh316SdBAYAIh
AIL7oyk2hk3srlJkNojNJCRuL4naQTWCiQAE8dbVietW
-----END CERTIFICATE-----
