Certificate:
    Data:
        Version: 1 (0x0)
        Serial Number:
            d4:d4:e0:56:83:d1:7d:61
    Signature Algorithm: ecdsa-with-SHA256
        Issuer: C=US, ST=CA, L=Santa Clara, O=Real Time Innovations, CN=RTI CA/emailAddress=secure@rti.com
        Validity
            Not Before: Dec 31 03:55:36 2019 GMT
            Not After : Dec 30 03:55:36 2020 GMT
        Subject: C=US, ST=CA, O=Real Time Innovations, CN=rsexampleECdsa/emailAddress=D2_DPECdsa@rti.com
        Subject Public Key Info:
            Public Key Algorithm: id-ecPublicKey
                Public-Key: (256 bit)
                pub: 
                    04:48:2b:26:9c:38:c2:92:8f:0d:33:a1:e1:4b:62:
                    81:9b:7b:73:4f:48:08:aa:ae:58:84:31:b1:cc:c7:
                    1b:22:54:85:13:ba:fa:b4:07:c9:2a:ee:75:4c:03:
                    ef:9e:66:e4:30:d6:fc:02:15:e1:ec:f0:09:da:23:
                    dd:b0:54:fc:be
                ASN1 OID: prime256v1
                NIST CURVE: P-256
    Signature Algorithm: ecdsa-with-SHA256
         30:45:02:20:77:a4:ba:af:d2:40:fd:38:01:67:ee:cd:6a:6c:
         6f:8e:7c:a8:11:4b:f6:9a:0e:bc:fd:62:7b:39:c9:3f:d0:f4:
         02:21:00:e4:8a:ef:ef:cb:30:17:e9:45:19:57:a5:06:6e:8a:
         8c:dc:68:c9:fd:87:21:74:c4:6c:fb:c2:7f:e9:7d:16:48
-----BEGIN CERTIFICATE-----
MIIB5zCCAY0CCQDU1OBWg9F9YTAKBggqhkjOPQQDAjCBgDELMAkGA1UEBhMCVVMx
CzAJBgNVBAgMAkNBMRQwEgYDVQQHDAtTYW50YSBDbGFyYTEeMBwGA1UECgwVUmVh
bCBUaW1lIElubm92YXRpb25zMQ8wDQYDVQQDDAZSVEkgQ0ExHTAbBgkqhkiG9w0B
CQEWDnNlY3VyZUBydGkuY29tMB4XDTE5MTIzMTAzNTUzNloXDTIwMTIzMDAzNTUz
NlowdjELMAkGA1UEBhMCVVMxCzAJBgNVBAgMAkNBMR4wHAYDVQQKDBVSZWFsIFRp
bWUgSW5ub3ZhdGlvbnMxFzAVBgNVBAMMDnJzZXhhbXBsZUVDZHNhMSEwHwYJKoZI
hvcNAQkBFhJEMl9EUEVDZHNhQHJ0aS5jb20wWTATBgcqhkjOPQIBBggqhkjOPQMB
BwNCAARIKyacOMKSjw0zoeFLYoGbe3NPSAiqrliEMbHMxxsiVIUTuvq0B8kq7nVM
A++eZuQw1vwCFeHs8AnaI92wVPy+MAoGCCqGSM49BAMCA0gAMEUCIHekuq/SQP04
AWfuzWpsb458qBFL9poOvP1ieznJP9D0AiEA5Irv78swF+lFGVelBm6KjNxoyf2H
IXTEbPvCf+l9Fkg=
-----END CERTIFICATE-----
