Certificate:
    Data:
        Version: 1 (0x0)
        Serial Number: 1 (0x1)
    Signature Algorithm: dsa_with_SHA256
        Issuer: C=US, ST=CA, L=Santa Clara, O=Real Time Innovations, CN=RTI CA/emailAddress=secure@rti.com
        Validity
            Not Before: Dec 30 15:26:22 2019 GMT
            Not After : Dec 29 15:26:22 2020 GMT
        Subject: C=US, ST=CA, O=Real Time Innovations, CN=rsexampledsa/emailAddress=D2_RSdsa@rti.com
        Subject Public Key Info:
            Public Key Algorithm: dsaEncryption
                pub: 
                    00:be:12:98:08:8f:77:43:81:85:e1:e1:82:21:81:
                    8c:5e:b2:1e:6a:3f:62:e9:ae:b8:6c:f7:e2:cb:b5:
                    70:c1:08:00:61:51:71:e3:3f:d9:20:e3:08:2f:ea:
                    d3:41:87:3e:4c:c4:47:d5:a6:d4:38:f7:f8:22:aa:
                    b0:25:71:36:57:85:da:af:0a:c8:de:a9:2b:ac:8e:
                    94:85:45:9a:d8:7a:f0:d6:0f:d0:b8:90:44:80:87:
                    f0:ef:68:3c:14:0d:83:ee:aa:ba:fb:dc:5e:6c:70:
                    45:08:19:fa:e7:89:8b:0f:93:81:f5:73:42:6a:ed:
                    1b:2e:a5:cb:c7:5e:4d:4f:4b:00:d7:62:ad:b8:8f:
                    f5:eb:48:6e:6f:da:54:57:9d:96:f9:ed:aa:b3:82:
                    4b:f2:42:49:d3:c4:64:31:c7:42:1a:be:f0:9c:42:
                    ae:c9:cf:bd:24:fc:5a:9c:6f:31:8e:d6:f7:9a:6b:
                    84:18:d6:9b:39:a1:cd:b6:8c:fa:4a:b2:0b:bf:d6:
                    41:1d:b5:53:57:ac:d1:eb:84:c2:fe:a0:ee:df:5e:
                    74:d9:1b:42:05:d3:6a:fc:1c:93:cc:20:2d:a4:eb:
                    db:91:a3:04:4a:d7:b5:60:c2:18:71:48:62:05:35:
                    7a:31:6b:bb:3b:96:4d:47:6d:bd:33:66:25:29:c3:
                    ad:94
                P:   
                    00:e9:be:22:aa:83:a5:21:38:35:f4:03:80:6d:a0:
                    1c:a3:d0:7e:57:20:a1:5c:c6:75:51:1b:7a:a3:a7:
                    af:dd:90:e8:bc:34:a7:41:59:b4:a7:9b:1d:0f:b7:
                    33:fb:9b:07:ec:85:31:73:2a:ef:18:ff:44:46:a6:
                    0b:3b:54:f9:bf:e2:11:2d:5a:14:a1:14:e6:c9:2e:
                    38:a6:f4:5b:18:ab:b7:4c:66:3c:71:4a:d3:bd:c0:
                    0d:ab:19:09:44:fd:ec:42:61:e6:fd:32:96:10:b2:
                    3d:1f:ac:06:1b:a2:9f:6e:51:11:f3:37:59:a3:bc:
                    75:06:92:31:d8:df:c6:7f:90:39:de:de:e7:dd:d8:
                    74:e0:79:50:a8:22:eb:96:c8:69:a2:f7:5a:25:83:
                    c1:0c:51:d0:b7:59:8e:a8:9f:89:a9:ab:2e:c3:f7:
                    eb:cb:56:8a:77:ea:2e:2e:a4:4c:ef:f1:7e:db:44:
                    b6:a3:08:70:35:d5:b6:f6:9b:cb:f1:de:a1:9a:b2:
                    3d:be:a0:04:c7:cb:b7:43:ef:22:23:61:4d:df:95:
                    2c:36:d2:3c:46:b6:85:d5:81:63:ba:50:24:e1:ab:
                    b6:21:ff:e9:07:0f:95:a3:c9:c9:8e:95:69:f9:85:
                    31:43:ec:92:00:81:91:55:a6:a0:32:a9:38:65:f6:
                    f1:e3
                Q:   
                    00:cd:54:5d:88:12:a9:cb:03:c7:76:70:2b:9e:1d:
                    fe:51:72:bb:0b:1e:f6:cb:3c:35:cb:7a:99:40:de:
                    d4:a3:d7
                G:   
                    77:39:88:47:7b:f7:c5:13:b4:8e:81:0c:3f:57:3f:
                    86:1c:84:c5:f5:e8:18:aa:a2:0e:52:15:0b:8f:c2:
                    3a:8b:8a:92:66:25:eb:2d:b8:83:13:93:78:98:c1:
                    ee:00:d5:69:24:67:97:93:f5:34:29:98:fa:f0:a4:
                    44:f1:5b:0d:60:e1:87:3f:80:b9:ca:95:54:01:80:
                    07:77:0c:c2:6c:31:ee:e8:2f:76:9f:a1:c1:8e:b7:
                    aa:bf:da:fa:6f:7e:a4:2c:90:53:df:d9:dd:19:b1:
                    1a:f7:93:77:c8:45:4e:17:f8:f9:1d:d6:13:b6:d3:
                    91:fd:23:f2:38:80:8e:07:51:3d:3b:0a:60:82:7a:
                    3a:b2:15:a2:eb:16:ba:b0:8c:0a:88:f0:74:d3:88:
                    3b:b3:6c:2f:d9:26:6a:14:c0:56:d4:a2:68:4a:e1:
                    83:f6:b7:b3:67:d5:b5:16:56:49:b5:34:00:65:40:
                    a4:d1:f0:d6:78:95:ed:9a:3c:76:0d:39:a5:b8:ec:
                    b2:a5:b9:ce:0f:c4:24:19:19:cc:ff:82:4d:e7:2b:
                    af:f8:fc:f5:5c:dc:37:da:42:bc:f2:60:73:a7:e4:
                    71:e4:e4:46:4b:54:bc:47:b2:92:ff:f8:e0:e7:31:
                    61:07:87:f6:25:9b:19:e0:6c:da:32:98:ba:ad:c0:
                    e8
    Signature Algorithm: dsa_with_SHA256
         r:   
             26:3c:67:72:20:03:18:b5:47:dc:28:bf:68:84:d8:
             27:76:f2:5d:c8:ca:6b:b3:56:3a:e2:14:95:45:70:
             01:e2
         s:   
             54:ec:8a:13:e8:3a:a3:e1:91:ee:63:c7:9a:bc:52:
             df:f6:e3:9b:ea:08:98:2b:44:6e:1f:6d:b1:58:ba:
             8e:e9
-----BEGIN CERTIFICATE-----
MIIEzDCCBHICAQEwCwYJYIZIAWUDBAMCMIGAMQswCQYDVQQGEwJVUzELMAkGA1UE
CAwCQ0ExFDASBgNVBAcMC1NhbnRhIENsYXJhMR4wHAYDVQQKDBVSZWFsIFRpbWUg
SW5ub3ZhdGlvbnMxDzANBgNVBAMMBlJUSSBDQTEdMBsGCSqGSIb3DQEJARYOc2Vj
dXJlQHJ0aS5jb20wHhcNMTkxMjMwMTUyNjIyWhcNMjAxMjI5MTUyNjIyWjByMQsw
CQYDVQQGEwJVUzELMAkGA1UECAwCQ0ExHjAcBgNVBAoMFVJlYWwgVGltZSBJbm5v
dmF0aW9uczEVMBMGA1UEAwwMcnNleGFtcGxlZHNhMR8wHQYJKoZIhvcNAQkBFhBE
Ml9SU2RzYUBydGkuY29tMIIDRzCCAjkGByqGSM44BAEwggIsAoIBAQDpviKqg6Uh
ODX0A4BtoByj0H5XIKFcxnVRG3qjp6/dkOi8NKdBWbSnmx0PtzP7mwfshTFzKu8Y
/0RGpgs7VPm/4hEtWhShFObJLjim9FsYq7dMZjxxStO9wA2rGQlE/exCYeb9MpYQ
sj0frAYbop9uURHzN1mjvHUGkjHY38Z/kDne3ufd2HTgeVCoIuuWyGmi91olg8EM
UdC3WY6on4mpqy7D9+vLVop36i4upEzv8X7bRLajCHA11bb2m8vx3qGasj2+oATH
y7dD7yIjYU3flSw20jxGtoXVgWO6UCThq7Yh/+kHD5WjycmOlWn5hTFD7JIAgZFV
pqAyqThl9vHjAiEAzVRdiBKpywPHdnArnh3+UXK7Cx72yzw1y3qZQN7Uo9cCggEA
dzmIR3v3xRO0joEMP1c/hhyExfXoGKqiDlIVC4/COouKkmYl6y24gxOTeJjB7gDV
aSRnl5P1NCmY+vCkRPFbDWDhhz+AucqVVAGAB3cMwmwx7ugvdp+hwY63qr/a+m9+
pCyQU9/Z3RmxGveTd8hFThf4+R3WE7bTkf0j8jiAjgdRPTsKYIJ6OrIVousWurCM
CojwdNOIO7NsL9kmahTAVtSiaErhg/a3s2fVtRZWSbU0AGVApNHw1niV7Zo8dg05
pbjssqW5zg/EJBkZzP+CTecrr/j89VzcN9pCvPJgc6fkceTkRktUvEeykv/44Ocx
YQeH9iWbGeBs2jKYuq3A6AOCAQYAAoIBAQC+EpgIj3dDgYXh4YIhgYxesh5qP2Lp
rrhs9+LLtXDBCABhUXHjP9kg4wgv6tNBhz5MxEfVptQ49/giqrAlcTZXhdqvCsje
qSusjpSFRZrYevDWD9C4kESAh/DvaDwUDYPuqrr73F5scEUIGfrniYsPk4H1c0Jq
7RsupcvHXk1PSwDXYq24j/XrSG5v2lRXnZb57aqzgkvyQknTxGQxx0IavvCcQq7J
z70k/FqcbzGO1veaa4QY1ps5oc22jPpKsgu/1kEdtVNXrNHrhML+oO7fXnTZG0IF
02r8HJPMIC2k69uRowRK17VgwhhxSGIFNXoxa7s7lk1Hbb0zZiUpw62UMAsGCWCG
SAFlAwQDAgNHADBEAiAmPGdyIAMYtUfcKL9ohNgndvJdyMprs1Y64hSVRXAB4gIg
VOyKE+g6o+GR7mPHmrxS3/bjm+oImCtEbh9tsVi6juk=
-----END CERTIFICATE-----
