Certificate:
    Data:
        Version: 1 (0x0)
        Serial Number: 1 (0x1)
    Signature Algorithm: sha256WithRSAEncryption
        Issuer: C=US, ST=CA, L=Santa Clara, O=Real Time Innovations, CN=RTI CA/emailAddress=secure@rti.com
        Validity
            Not Before: Dec 30 15:25:45 2019 GMT
            Not After : Dec 29 15:25:45 2020 GMT
        Subject: C=US, ST=CA, O=Real Time Innovations, CN=rsexample/emailAddress=D2_RS@rti.com
        Subject Public Key Info:
            Public Key Algorithm: rsaEncryption
                Public-Key: (2048 bit)
                Modulus:
                    00:d4:cb:5b:77:44:c0:c5:02:12:a6:a0:79:5e:df:
                    ad:e1:e1:c5:87:be:97:2e:bc:60:23:cd:ed:30:db:
                    a3:3e:00:03:bb:ab:85:ec:51:1b:86:48:ba:29:08:
                    9b:5a:2b:0b:9e:a6:f6:d8:c8:85:74:4d:3b:b8:12:
                    e3:23:f6:87:81:c4:83:65:0c:24:0f:61:8e:b3:39:
                    49:3e:4a:5c:76:ba:0a:27:0e:aa:6e:05:5b:24:96:
                    77:c9:ea:be:92:66:36:d8:31:73:9f:53:92:f3:61:
                    74:2d:d2:71:cd:19:de:b9:0e:56:57:8a:8f:81:54:
                    04:90:fd:74:c6:de:e4:d6:33:3a:f8:51:e4:21:cd:
                    6f:9b:a8:da:f2:84:7e:9b:85:74:ec:09:02:de:62:
                    7c:95:48:c3:b6:2a:e0:14:df:a2:4e:21:ca:23:a7:
                    3e:19:9e:af:f8:dc:01:13:63:b6:60:34:3a:82:70:
                    19:c3:48:48:81:2e:0c:53:9e:63:b2:d5:5f:0f:63:
                    ad:48:9f:61:81:19:27:84:20:89:6d:ed:81:f7:17:
                    83:aa:98:3d:5a:8c:93:bf:eb:ae:e9:3f:82:01:0b:
                    f4:8b:39:ce:50:f1:72:b5:e5:3d:4c:e2:e3:7b:2b:
                    87:e2:3d:0f:ba:e9:0c:6e:3c:27:6c:86:54:98:c9:
                    b0:23
                Exponent: 65537 (0x10001)
    Signature Algorithm: sha256WithRSAEncryption
         66:30:4a:49:2e:81:ef:68:c6:fa:2c:8e:fd:b8:3a:36:82:92:
         86:70:45:28:15:9f:76:de:6f:fd:0d:5b:44:43:45:99:a8:56:
         31:78:8d:e5:e2:49:f9:4f:66:a1:c1:77:6b:74:be:8b:01:4f:
         d5:46:80:90:62:33:8b:7b:e6:55:df:ce:b2:2b:1d:e4:9b:6d:
         cf:3d:97:64:7e:04:5d:cd:6a:c2:0c:2a:cf:f2:04:82:97:4f:
         a2:66:be:be:cd:0d:73:4d:03:a2:7c:51:ad:22:52:02:aa:27:
         1f:1c:d3:65:d2:99:6c:18:f9:c3:66:cf:0c:64:a1:d5:39:6b:
         51:1c:50:5c:87:fd:42:4a:0c:5f:13:2e:bd:90:da:40:fc:56:
         01:be:7f:db:7b:62:ad:97:ce:b3:6c:5f:e0:41:70:0a:bf:f9:
         41:f6:cb:53:7a:59:ad:34:f4:8c:f1:d4:29:d8:9c:5c:fe:1b:
         b3:5c:fc:cc:02:b9:60:9d:5d:62:91:a7:ea:58:f1:18:58:e8:
         b4:bc:0a:91:d2:a9:db:76:07:8b:d6:d1:09:0c:29:33:06:74:
         75:9c:31:95:7c:e1:4f:b7:cd:ab:ef:f4:71:b5:d8:9d:0b:0b:
         ef:75:7a:cc:41:f4:7f:4a:92:44:68:e7:8b:18:ab:c3:ba:c1:
         13:17:93:ad
-----BEGIN CERTIFICATE-----
MIIDYTCCAkkCAQEwDQYJKoZIhvcNAQELBQAwgYAxCzAJBgNVBAYTAlVTMQswCQYD
VQQIDAJDQTEUMBIGA1UEBwwLU2FudGEgQ2xhcmExHjAcBgNVBAoMFVJlYWwgVGlt
ZSBJbm5vdmF0aW9uczEPMA0GA1UEAwwGUlRJIENBMR0wGwYJKoZIhvcNAQkBFg5z
ZWN1cmVAcnRpLmNvbTAeFw0xOTEyMzAxNTI1NDVaFw0yMDEyMjkxNTI1NDVaMGwx
CzAJBgNVBAYTAlVTMQswCQYDVQQIDAJDQTEeMBwGA1UECgwVUmVhbCBUaW1lIElu
bm92YXRpb25zMRIwEAYDVQQDDAlyc2V4YW1wbGUxHDAaBgkqhkiG9w0BCQEWDUQy
X1JTQHJ0aS5jb20wggEiMA0GCSqGSIb3DQEBAQUAA4IBDwAwggEKAoIBAQDUy1t3
RMDFAhKmoHle363h4cWHvpcuvGAjze0w26M+AAO7q4XsURuGSLopCJtaKwuepvbY
yIV0TTu4EuMj9oeBxINlDCQPYY6zOUk+Slx2ugonDqpuBVsklnfJ6r6SZjbYMXOf
U5LzYXQt0nHNGd65DlZXio+BVASQ/XTG3uTWMzr4UeQhzW+bqNryhH6bhXTsCQLe
YnyVSMO2KuAU36JOIcojpz4Znq/43AETY7ZgNDqCcBnDSEiBLgxTnmOy1V8PY61I
n2GBGSeEIIlt7YH3F4OqmD1ajJO/667pP4IBC/SLOc5Q8XK15T1M4uN7K4fiPQ+6
6QxuPCdshlSYybAjAgMBAAEwDQYJKoZIhvcNAQELBQADggEBAGYwSkkuge9oxvos
jv24OjaCkoZwRSgVn3beb/0NW0RDRZmoVjF4jeXiSflPZqHBd2t0vosBT9VGgJBi
M4t75lXfzrIrHeSbbc89l2R+BF3NasIMKs/yBIKXT6Jmvr7NDXNNA6J8Ua0iUgKq
Jx8c02XSmWwY+cNmzwxkodU5a1EcUFyH/UJKDF8TLr2Q2kD8VgG+f9t7Yq2XzrNs
X+BBcAq/+UH2y1N6Wa009Izx1CnYnFz+G7Nc/MwCuWCdXWKRp+pY8RhY6LS8CpHS
qdt2B4vW0QkMKTMGdHWcMZV84U+3zavv9HG12J0LC+91esxB9H9KkkRo54sYq8O6
wRMXk60=
-----END CERTIFICATE-----
