Certificate:
    Data:
        Version: 1 (0x0)
        Serial Number:
            d4:d4:e0:56:83:d1:7d:5d
    Signature Algorithm: ecdsa-with-SHA256
        Issuer: C=US, ST=CA, L=Santa Clara, O=Real Time Innovations, CN=RTI CA/emailAddress=secure@rti.com
        Validity
            Not Before: Dec 30 15:26:57 2019 GMT
            Not After : Dec 29 15:26:57 2020 GMT
        Subject: C=US, ST=CA, O=Real Time Innovations, CN=rsexampleECdsa/emailAddress=D2_RSECdsa@rti.com
        Subject Public Key Info:
            Public Key Algorithm: id-ecPublicKey
                Public-Key: (256 bit)
                pub: 
                    04:f3:a2:8f:31:81:9d:aa:e0:63:2c:db:d3:d8:94:
                    00:7d:30:23:ee:7a:27:99:07:ce:4b:17:d6:74:6a:
                    9b:7e:67:52:c2:64:41:cd:86:8e:83:d8:40:58:b3:
                    72:0c:1f:23:a1:5d:02:a9:0c:bf:d7:ae:46:f0:b1:
                    b4:70:8e:cf:26
                ASN1 OID: prime256v1
                NIST CURVE: P-256
    Signature Algorithm: ecdsa-with-SHA256
         30:44:02:20:7f:3f:72:a1:8c:4c:46:21:91:4f:81:ce:38:af:
         cf:18:85:87:b8:62:2f:64:c3:16:6d:37:44:2f:6c:56:b7:4b:
         02:20:38:5f:fa:07:bd:07:e4:74:83:cc:96:1a:8c:2d:c9:e0:
         f4:ac:72:51:cd:c3:24:e8:9a:75:94:cd:42:67:7e:2e
-----BEGIN CERTIFICATE-----
MIIB5jCCAY0CCQDU1OBWg9F9XTAKBggqhkjOPQQDAjCBgDELMAkGA1UEBhMCVVMx
CzAJBgNVBAgMAkNBMRQwEgYDVQQHDAtTYW50YSBDbGFyYTEeMBwGA1UECgwVUmVh
bCBUaW1lIElubm92YXRpb25zMQ8wDQYDVQQDDAZSVEkgQ0ExHTAbBgkqhkiG9w0B
CQEWDnNlY3VyZUBydGkuY29tMB4XDTE5MTIzMDE1MjY1N1oXDTIwMTIyOTE1MjY1
N1owdjELMAkGA1UEBhMCVVMxCzAJBgNVBAgMAkNBMR4wHAYDVQQKDBVSZWFsIFRp
bWUgSW5ub3ZhdGlvbnMxFzAVBgNVBAMMDnJzZXhhbXBsZUVDZHNhMSEwHwYJKoZI
hvcNAQkBFhJEMl9SU0VDZHNhQHJ0aS5jb20wWTATBgcqhkjOPQIBBggqhkjOPQMB
BwNCAATzoo8xgZ2q4GMs29PYlAB9MCPueieZB85LF9Z0apt+Z1LCZEHNho6D2EBY
s3IMHyOhXQKpDL/XrkbwsbRwjs8mMAoGCCqGSM49BAMCA0cAMEQCIH8/cqGMTEYh
kU+BzjivzxiFh7hiL2TDFm03RC9sVrdLAiA4X/oHvQfkdIPMlhqMLcng9KxyUc3D
JOiadZTNQmd+Lg==
-----END CERTIFICATE-----
