Certificate:
    Data:
        Version: 1 (0x0)
        Serial Number:
            1c:f2:6b:eb:c6:06:29:88:4a:9e:31:a5:48:f8:92:ac:f9:a5:ca:45
        Signature Algorithm: NULL
        Issuer: C = US, ST = CA, L = Santa Clara, O = Real Time Innovations, emailAddress = ecdsa01ParticipantA@rti.com, CN = Crl Participant A
        Validity
            Not Before: Nov  9 19:42:37 2023 GMT
            Not After : Nov  8 19:42:37 2025 GMT
        Subject: C = US, ST = CA, L = Santa Clara, O = Real Time Innovations, emailAddress = ecdsa01ParticipantA@rti.com, CN = Crl Participant A
        Subject Public Key Info:
            Public Key Algorithm: rsaEncryption
                RSA Public-Key: (2048 bit)
                Modulus:
                    00:b8:3d:d5:ac:25:2e:29:ed:13:0f:05:73:67:0b:
                    93:c4:65:b5:d6:29:16:9e:1d:fa:2b:14:76:c6:36:
                    df:67:c3:27:6a:5b:a8:42:e5:7e:73:4c:07:00:17:
                    4a:08:99:87:7b:9a:a3:5b:73:6f:c2:bb:b3:a5:41:
                    1c:64:41:1f:43:da:86:6f:19:24:13:17:f4:62:e5:
                    a6:8e:7f:23:b1:04:2e:8d:14:3b:21:a1:5f:c3:70:
                    95:d0:33:49:77:dd:0b:59:18:1c:36:e7:4f:c7:12:
                    5b:e1:be:c7:29:8f:be:bc:fc:aa:38:95:08:e3:93:
                    56:3f:6b:29:1d:08:b0:7b:ad:67:fc:d6:27:ab:2e:
                    33:22:0e:d4:52:22:0f:11:dd:9c:55:c9:e4:01:9f:
                    c9:6e:c2:03:46:47:3d:ad:be:63:90:6b:41:22:fd:
                    ba:f8:5f:71:e3:c4:da:c5:03:d5:97:e2:c7:b2:35:
                    46:78:f0:ee:15:f5:6d:d3:76:5b:af:6e:53:a0:09:
                    b5:04:68:56:56:cc:a5:6f:b4:a3:3b:db:93:8f:21:
                    a1:ae:a7:2c:dd:14:31:cd:cd:53:0f:a6:2a:1e:93:
                    7c:43:9f:8f:32:e0:0f:7d:ed:4d:a3:55:d7:15:ec:
                    97:ad:44:b6:99:e8:4b:21:ae:59:04:e4:cb:cb:83:
                    92:21
                Exponent: 65537 (0x10001)
    Signature Algorithm: NULL
-----BEGIN CERTIFICATE-----
MIIC5zCCAo4CAQYwCgYIKoZIzj0EAwIwgZsxCzAJBgNVBAYTAlVTMQswCQYDVQQI
DAJDQTEUMBIGA1UEBwwLU2FudGEgQ2xhcmExHjAcBgNVBAoMFVJlYWwgVGltZSBJ
bm5vdmF0aW9uczEjMCEGA1UEAwwaUlRJIEVDRFNBMDEgKHAyNTYpIFJPT1QgQ0Ex
JDAiBgkqhkiG9w0BCQEWFWVjZHNhMDFSb290Q2FAcnRpLmNvbTAeFw0yMzExMDkx
OTQyMzdaFw0yNTExMDgxOTQyMzdaMIGYMQswCQYDVQQGEwJVUzELMAkGA1UECAwC
Q0ExFDASBgNVBAcMC1NhbnRhIENsYXJhMR4wHAYDVQQKDBVSZWFsIFRpbWUgSW5u
b3ZhdGlvbnMxKjAoBgkqhkiG9w0BCQEWG2VjZHNhMDFQYXJ0aWNpcGFudEFAcnRp
LmNvbTEaMBgGA1UEAwwRQ3JsIFBhcnRpY2lwYW50IEEwggEiMA0GCSqGSIb3DQEB
AQUAA4IBDwAwggEKAoIBAQC4PdWsJS4p7RMPBXNnC5PEZbXWKRaeHforFHbGNt9n
wydqW6hC5X5zTAcAF0oImYd7mqNbc2/Cu7OlQRxkQR9D2oZvGSQTF/Ri5aaOfyOx
BC6NFDshoV/DcJXQM0l33QtZGBw250/HElvhvscpj768/Ko4lQjjk1Y/aykdCLB7
rWf81ierLjMiDtRSIg8R3ZxVyeQBn8luwgNGRz2tvmOQa0Ei/br4X3HjxNrFA9WX
4seyNUZ48O4V9W3TdluvblOgCbUEaFZWzKVvtKM725OPIaGupyzdFDHNzVMPpioe
k3xDn48y4A997U2jVdcV7JetRLaZ6EshrlkE5MvLg5IhAgMBAAEwCgYIKoZIzj0E
AwIDRwAwRAIgJ5lfM7vCTkyqDbmGElNSEFzWFAgjhXS4nQ4p7nIW4QcCIE+uiT03
TH2tkpPFH6jAK/j39QGLLwyCjaFfRh4lIiP3
-----END CERTIFICATE-----
