Certificate:
    Data:
        Version: 1 (0x0)
        Serial Number:
            58:a1:5a:7b:73:69:4f:61:bb:f9:9d:d4:6e:fb:b8:09:1b:46:91:c6
        Signature Algorithm: NULL
        Issuer: C = US, ST = CA, L = Santa Clara, O = Real Time Innovations, emailAddress = ecdsa01ParticipantB@rti.com, CN = Lightweight Participant B
        Validity
            Not Before: Nov  9 17:40:41 2023 GMT
            Not After : Nov  8 17:40:41 2025 GMT
        Subject: C = US, ST = CA, L = Santa Clara, O = Real Time Innovations, emailAddress = ecdsa01ParticipantB@rti.com, CN = Lightweight Participant B
        Subject Public Key Info:
            Public Key Algorithm: rsaEncryption
                RSA Public-Key: (2048 bit)
                Modulus:
                    00:c2:7a:2d:9d:66:93:c5:4c:28:8c:2c:9f:84:e0:
                    bd:fd:b3:0b:8f:d2:3b:62:f7:52:35:7c:46:38:62:
                    33:76:54:8a:14:bc:72:f6:17:0f:c5:76:b2:75:d8:
                    f1:b5:47:3b:90:57:bb:ba:75:cb:c8:72:c4:2d:3d:
                    51:0e:6a:25:1e:d0:9a:40:1f:90:03:1f:b7:ba:b6:
                    1b:a1:d5:ca:98:e2:51:ac:2c:93:78:87:11:3c:3f:
                    3d:c7:c0:91:4b:fb:0b:41:fa:66:67:22:7d:9e:7a:
                    c2:8f:4b:47:3d:4a:9c:b3:89:d2:97:0f:04:b1:e7:
                    ed:3a:50:36:d3:89:eb:d0:db:a3:9f:af:1f:b5:fe:
                    61:93:68:fa:84:7e:47:8f:d6:65:f3:9d:c0:58:47:
                    80:cc:3b:63:e6:f2:5f:74:2f:39:83:d1:79:f0:8b:
                    e5:57:00:3b:96:2c:d4:ef:e2:52:27:3a:96:18:6b:
                    a6:61:ca:29:8e:b8:a2:5d:16:86:33:73:8a:fa:8a:
                    60:c4:9b:c7:5d:f6:4c:ba:55:0c:65:b4:0b:09:c4:
                    51:f9:8e:46:00:95:da:06:b3:a2:f2:b1:45:b6:72:
                    41:c4:37:86:ba:de:eb:fd:88:51:28:13:bc:15:1d:
                    dd:a0:82:bf:d2:b3:d5:8e:10:7d:e0:0b:be:11:d8:
                    86:95
                Exponent: 65537 (0x10001)
    Signature Algorithm: NULL
-----BEGIN CERTIFICATE-----
MIIC8DCCApYCAQUwCgYIKoZIzj0EAwIwgZsxCzAJBgNVBAYTAlVTMQswCQYDVQQI
DAJDQTEUMBIGA1UEBwwLU2FudGEgQ2xhcmExHjAcBgNVBAoMFVJlYWwgVGltZSBJ
bm5vdmF0aW9uczEjMCEGA1UEAwwaUlRJIEVDRFNBMDEgKHAyNTYpIFJPT1QgQ0Ex
JDAiBgkqhkiG9w0BCQEWFWVjZHNhMDFSb290Q2FAcnRpLmNvbTAeFw0yMzExMDkx
NzQwNDFaFw0yNTExMDgxNzQwNDFaMIGgMQswCQYDVQQGEwJVUzELMAkGA1UECAwC
Q0ExFDASBgNVBAcMC1NhbnRhIENsYXJhMR4wHAYDVQQKDBVSZWFsIFRpbWUgSW5u
b3ZhdGlvbnMxKjAoBgkqhkiG9w0BCQEWG2VjZHNhMDFQYXJ0aWNpcGFudEJAcnRp
LmNvbTEiMCAGA1UEAwwZTGlnaHR3ZWlnaHQgUGFydGljaXBhbnQgQjCCASIwDQYJ
KoZIhvcNAQEBBQADggEPADCCAQoCggEBAMJ6LZ1mk8VMKIwsn4Tgvf2zC4/SO2L3
UjV8RjhiM3ZUihS8cvYXD8V2snXY8bVHO5BXu7p1y8hyxC09UQ5qJR7QmkAfkAMf
t7q2G6HVypjiUawsk3iHETw/PcfAkUv7C0H6ZmcifZ56wo9LRz1KnLOJ0pcPBLHn
7TpQNtOJ69Dbo5+vH7X+YZNo+oR+R4/WZfOdwFhHgMw7Y+byX3QvOYPRefCL5VcA
O5Ys1O/iUic6lhhrpmHKKY64ol0WhjNzivqKYMSbx132TLpVDGW0CwnEUfmORgCV
2gazovKxRbZyQcQ3hrre6/2IUSgTvBUd3aCCv9Kz1Y4QfeALvhHYhpUCAwEAATAK
BggqhkjOPQQDAgNIADBFAiAUqRhLGlHhR/5vDKKhKzxiHWWMtlQKgM0dh3sRGBI2
lQIhAM04oxx8L3iyBsvg2PiL8I0nkzeC1aWurapDKuf+8ZaY
-----END CERTIFICATE-----
